
MC_SVPWM.elf:     file format elf32-littlearm

Sections:
Idx Name          Size      VMA       LMA       File off  Algn
  0 .isr_vector   0000018c  08000000  08000000  00010000  2**0
                  CONTENTS, ALLOC, LOAD, READONLY, DATA
  1 .text         00002d40  08000190  08000190  00010190  2**3
                  CONTENTS, ALLOC, LOAD, READONLY, CODE
  2 .rodata       00000410  08002ed0  08002ed0  00012ed0  2**2
                  CONTENTS, ALLOC, LOAD, READONLY, DATA
  3 .ARM.extab    00000000  080032e0  080032e0  0002000c  2**0
                  CONTENTS
  4 .ARM          00000000  080032e0  080032e0  0002000c  2**0
                  CONTENTS
  5 .preinit_array 00000000  080032e0  080032e0  0002000c  2**0
                  CONTENTS, ALLOC, LOAD, DATA
  6 .init_array   00000004  080032e0  080032e0  000132e0  2**2
                  CONTENTS, ALLOC, LOAD, DATA
  7 .fini_array   00000004  080032e4  080032e4  000132e4  2**2
                  CONTENTS, ALLOC, LOAD, DATA
  8 .data         0000000c  20000000  080032e8  00020000  2**2
                  CONTENTS, ALLOC, LOAD, DATA
  9 .bss          00000140  2000000c  080032f4  0002000c  2**2
                  ALLOC
 10 ._user_heap_stack 00000604  2000014c  080032f4  0002014c  2**0
                  ALLOC
 11 .ARM.attributes 00000030  00000000  00000000  0002000c  2**0
                  CONTENTS, READONLY
 12 .comment      0000007b  00000000  00000000  0002003c  2**0
                  CONTENTS, READONLY
 13 .debug_frame  000002b8  00000000  00000000  000200b8  2**2
                  CONTENTS, READONLY, DEBUGGING

Disassembly of section .text:

08000190 <__do_global_dtors_aux>:
 8000190:	b510      	push	{r4, lr}
 8000192:	4c05      	ldr	r4, [pc, #20]	; (80001a8 <__do_global_dtors_aux+0x18>)
 8000194:	7823      	ldrb	r3, [r4, #0]
 8000196:	b933      	cbnz	r3, 80001a6 <__do_global_dtors_aux+0x16>
 8000198:	4b04      	ldr	r3, [pc, #16]	; (80001ac <__do_global_dtors_aux+0x1c>)
 800019a:	b113      	cbz	r3, 80001a2 <__do_global_dtors_aux+0x12>
 800019c:	4804      	ldr	r0, [pc, #16]	; (80001b0 <__do_global_dtors_aux+0x20>)
 800019e:	f3af 8000 	nop.w
 80001a2:	2301      	movs	r3, #1
 80001a4:	7023      	strb	r3, [r4, #0]
 80001a6:	bd10      	pop	{r4, pc}
 80001a8:	2000000c 	.word	0x2000000c
 80001ac:	00000000 	.word	0x00000000
 80001b0:	08002eb8 	.word	0x08002eb8

080001b4 <frame_dummy>:
 80001b4:	b508      	push	{r3, lr}
 80001b6:	4b03      	ldr	r3, [pc, #12]	; (80001c4 <frame_dummy+0x10>)
 80001b8:	b11b      	cbz	r3, 80001c2 <frame_dummy+0xe>
 80001ba:	4903      	ldr	r1, [pc, #12]	; (80001c8 <frame_dummy+0x14>)
 80001bc:	4803      	ldr	r0, [pc, #12]	; (80001cc <frame_dummy+0x18>)
 80001be:	f3af 8000 	nop.w
 80001c2:	bd08      	pop	{r3, pc}
 80001c4:	00000000 	.word	0x00000000
 80001c8:	20000010 	.word	0x20000010
 80001cc:	08002eb8 	.word	0x08002eb8

080001d0 <__aeabi_drsub>:
 80001d0:	f081 4100 	eor.w	r1, r1, #2147483648	; 0x80000000
 80001d4:	e002      	b.n	80001dc <__adddf3>
 80001d6:	bf00      	nop

080001d8 <__aeabi_dsub>:
 80001d8:	f083 4300 	eor.w	r3, r3, #2147483648	; 0x80000000

080001dc <__adddf3>:
 80001dc:	b530      	push	{r4, r5, lr}
 80001de:	ea4f 0441 	mov.w	r4, r1, lsl #1
 80001e2:	ea4f 0543 	mov.w	r5, r3, lsl #1
 80001e6:	ea94 0f05 	teq	r4, r5
 80001ea:	bf08      	it	eq
 80001ec:	ea90 0f02 	teqeq	r0, r2
 80001f0:	bf1f      	itttt	ne
 80001f2:	ea54 0c00 	orrsne.w	ip, r4, r0
 80001f6:	ea55 0c02 	orrsne.w	ip, r5, r2
 80001fa:	ea7f 5c64 	mvnsne.w	ip, r4, asr #21
 80001fe:	ea7f 5c65 	mvnsne.w	ip, r5, asr #21
 8000202:	f000 80e2 	beq.w	80003ca <__adddf3+0x1ee>
 8000206:	ea4f 5454 	mov.w	r4, r4, lsr #21
 800020a:	ebd4 5555 	rsbs	r5, r4, r5, lsr #21
 800020e:	bfb8      	it	lt
 8000210:	426d      	neglt	r5, r5
 8000212:	dd0c      	ble.n	800022e <__adddf3+0x52>
 8000214:	442c      	add	r4, r5
 8000216:	ea80 0202 	eor.w	r2, r0, r2
 800021a:	ea81 0303 	eor.w	r3, r1, r3
 800021e:	ea82 0000 	eor.w	r0, r2, r0
 8000222:	ea83 0101 	eor.w	r1, r3, r1
 8000226:	ea80 0202 	eor.w	r2, r0, r2
 800022a:	ea81 0303 	eor.w	r3, r1, r3
 800022e:	2d36      	cmp	r5, #54	; 0x36
 8000230:	bf88      	it	hi
 8000232:	bd30      	pophi	{r4, r5, pc}
 8000234:	f011 4f00 	tst.w	r1, #2147483648	; 0x80000000
 8000238:	ea4f 3101 	mov.w	r1, r1, lsl #12
 800023c:	f44f 1c80 	mov.w	ip, #1048576	; 0x100000
 8000240:	ea4c 3111 	orr.w	r1, ip, r1, lsr #12
 8000244:	d002      	beq.n	800024c <__adddf3+0x70>
 8000246:	4240      	negs	r0, r0
 8000248:	eb61 0141 	sbc.w	r1, r1, r1, lsl #1
 800024c:	f013 4f00 	tst.w	r3, #2147483648	; 0x80000000
 8000250:	ea4f 3303 	mov.w	r3, r3, lsl #12
 8000254:	ea4c 3313 	orr.w	r3, ip, r3, lsr #12
 8000258:	d002      	beq.n	8000260 <__adddf3+0x84>
 800025a:	4252      	negs	r2, r2
 800025c:	eb63 0343 	sbc.w	r3, r3, r3, lsl #1
 8000260:	ea94 0f05 	teq	r4, r5
 8000264:	f000 80a7 	beq.w	80003b6 <__adddf3+0x1da>
 8000268:	f1a4 0401 	sub.w	r4, r4, #1
 800026c:	f1d5 0e20 	rsbs	lr, r5, #32
 8000270:	db0d      	blt.n	800028e <__adddf3+0xb2>
 8000272:	fa02 fc0e 	lsl.w	ip, r2, lr
 8000276:	fa22 f205 	lsr.w	r2, r2, r5
 800027a:	1880      	adds	r0, r0, r2
 800027c:	f141 0100 	adc.w	r1, r1, #0
 8000280:	fa03 f20e 	lsl.w	r2, r3, lr
 8000284:	1880      	adds	r0, r0, r2
 8000286:	fa43 f305 	asr.w	r3, r3, r5
 800028a:	4159      	adcs	r1, r3
 800028c:	e00e      	b.n	80002ac <__adddf3+0xd0>
 800028e:	f1a5 0520 	sub.w	r5, r5, #32
 8000292:	f10e 0e20 	add.w	lr, lr, #32
 8000296:	2a01      	cmp	r2, #1
 8000298:	fa03 fc0e 	lsl.w	ip, r3, lr
 800029c:	bf28      	it	cs
 800029e:	f04c 0c02 	orrcs.w	ip, ip, #2
 80002a2:	fa43 f305 	asr.w	r3, r3, r5
 80002a6:	18c0      	adds	r0, r0, r3
 80002a8:	eb51 71e3 	adcs.w	r1, r1, r3, asr #31
 80002ac:	f001 4500 	and.w	r5, r1, #2147483648	; 0x80000000
 80002b0:	d507      	bpl.n	80002c2 <__adddf3+0xe6>
 80002b2:	f04f 0e00 	mov.w	lr, #0
 80002b6:	f1dc 0c00 	rsbs	ip, ip, #0
 80002ba:	eb7e 0000 	sbcs.w	r0, lr, r0
 80002be:	eb6e 0101 	sbc.w	r1, lr, r1
 80002c2:	f5b1 1f80 	cmp.w	r1, #1048576	; 0x100000
 80002c6:	d31b      	bcc.n	8000300 <__adddf3+0x124>
 80002c8:	f5b1 1f00 	cmp.w	r1, #2097152	; 0x200000
 80002cc:	d30c      	bcc.n	80002e8 <__adddf3+0x10c>
 80002ce:	0849      	lsrs	r1, r1, #1
 80002d0:	ea5f 0030 	movs.w	r0, r0, rrx
 80002d4:	ea4f 0c3c 	mov.w	ip, ip, rrx
 80002d8:	f104 0401 	add.w	r4, r4, #1
 80002dc:	ea4f 5244 	mov.w	r2, r4, lsl #21
 80002e0:	f512 0f80 	cmn.w	r2, #4194304	; 0x400000
 80002e4:	f080 809a 	bcs.w	800041c <__adddf3+0x240>
 80002e8:	f1bc 4f00 	cmp.w	ip, #2147483648	; 0x80000000
 80002ec:	bf08      	it	eq
 80002ee:	ea5f 0c50 	movseq.w	ip, r0, lsr #1
 80002f2:	f150 0000 	adcs.w	r0, r0, #0
 80002f6:	eb41 5104 	adc.w	r1, r1, r4, lsl #20
 80002fa:	ea41 0105 	orr.w	r1, r1, r5
 80002fe:	bd30      	pop	{r4, r5, pc}
 8000300:	ea5f 0c4c 	movs.w	ip, ip, lsl #1
 8000304:	4140      	adcs	r0, r0
 8000306:	eb41 0101 	adc.w	r1, r1, r1
 800030a:	f411 1f80 	tst.w	r1, #1048576	; 0x100000
 800030e:	f1a4 0401 	sub.w	r4, r4, #1
 8000312:	d1e9      	bne.n	80002e8 <__adddf3+0x10c>
 8000314:	f091 0f00 	teq	r1, #0
 8000318:	bf04      	itt	eq
 800031a:	4601      	moveq	r1, r0
 800031c:	2000      	moveq	r0, #0
 800031e:	fab1 f381 	clz	r3, r1
 8000322:	bf08      	it	eq
 8000324:	3320      	addeq	r3, #32
 8000326:	f1a3 030b 	sub.w	r3, r3, #11
 800032a:	f1b3 0220 	subs.w	r2, r3, #32
 800032e:	da0c      	bge.n	800034a <__adddf3+0x16e>
 8000330:	320c      	adds	r2, #12
 8000332:	dd08      	ble.n	8000346 <__adddf3+0x16a>
 8000334:	f102 0c14 	add.w	ip, r2, #20
 8000338:	f1c2 020c 	rsb	r2, r2, #12
 800033c:	fa01 f00c 	lsl.w	r0, r1, ip
 8000340:	fa21 f102 	lsr.w	r1, r1, r2
 8000344:	e00c      	b.n	8000360 <__adddf3+0x184>
 8000346:	f102 0214 	add.w	r2, r2, #20
 800034a:	bfd8      	it	le
 800034c:	f1c2 0c20 	rsble	ip, r2, #32
 8000350:	fa01 f102 	lsl.w	r1, r1, r2
 8000354:	fa20 fc0c 	lsr.w	ip, r0, ip
 8000358:	bfdc      	itt	le
 800035a:	ea41 010c 	orrle.w	r1, r1, ip
 800035e:	4090      	lslle	r0, r2
 8000360:	1ae4      	subs	r4, r4, r3
 8000362:	bfa2      	ittt	ge
 8000364:	eb01 5104 	addge.w	r1, r1, r4, lsl #20
 8000368:	4329      	orrge	r1, r5
 800036a:	bd30      	popge	{r4, r5, pc}
 800036c:	ea6f 0404 	mvn.w	r4, r4
 8000370:	3c1f      	subs	r4, #31
 8000372:	da1c      	bge.n	80003ae <__adddf3+0x1d2>
 8000374:	340c      	adds	r4, #12
 8000376:	dc0e      	bgt.n	8000396 <__adddf3+0x1ba>
 8000378:	f104 0414 	add.w	r4, r4, #20
 800037c:	f1c4 0220 	rsb	r2, r4, #32
 8000380:	fa20 f004 	lsr.w	r0, r0, r4
 8000384:	fa01 f302 	lsl.w	r3, r1, r2
 8000388:	ea40 0003 	orr.w	r0, r0, r3
 800038c:	fa21 f304 	lsr.w	r3, r1, r4
 8000390:	ea45 0103 	orr.w	r1, r5, r3
 8000394:	bd30      	pop	{r4, r5, pc}
 8000396:	f1c4 040c 	rsb	r4, r4, #12
 800039a:	f1c4 0220 	rsb	r2, r4, #32
 800039e:	fa20 f002 	lsr.w	r0, r0, r2
 80003a2:	fa01 f304 	lsl.w	r3, r1, r4
 80003a6:	ea40 0003 	orr.w	r0, r0, r3
 80003aa:	4629      	mov	r1, r5
 80003ac:	bd30      	pop	{r4, r5, pc}
 80003ae:	fa21 f004 	lsr.w	r0, r1, r4
 80003b2:	4629      	mov	r1, r5
 80003b4:	bd30      	pop	{r4, r5, pc}
 80003b6:	f094 0f00 	teq	r4, #0
 80003ba:	f483 1380 	eor.w	r3, r3, #1048576	; 0x100000
 80003be:	bf06      	itte	eq
 80003c0:	f481 1180 	eoreq.w	r1, r1, #1048576	; 0x100000
 80003c4:	3401      	addeq	r4, #1
 80003c6:	3d01      	subne	r5, #1
 80003c8:	e74e      	b.n	8000268 <__adddf3+0x8c>
 80003ca:	ea7f 5c64 	mvns.w	ip, r4, asr #21
 80003ce:	bf18      	it	ne
 80003d0:	ea7f 5c65 	mvnsne.w	ip, r5, asr #21
 80003d4:	d029      	beq.n	800042a <__adddf3+0x24e>
 80003d6:	ea94 0f05 	teq	r4, r5
 80003da:	bf08      	it	eq
 80003dc:	ea90 0f02 	teqeq	r0, r2
 80003e0:	d005      	beq.n	80003ee <__adddf3+0x212>
 80003e2:	ea54 0c00 	orrs.w	ip, r4, r0
 80003e6:	bf04      	itt	eq
 80003e8:	4619      	moveq	r1, r3
 80003ea:	4610      	moveq	r0, r2
 80003ec:	bd30      	pop	{r4, r5, pc}
 80003ee:	ea91 0f03 	teq	r1, r3
 80003f2:	bf1e      	ittt	ne
 80003f4:	2100      	movne	r1, #0
 80003f6:	2000      	movne	r0, #0
 80003f8:	bd30      	popne	{r4, r5, pc}
 80003fa:	ea5f 5c54 	movs.w	ip, r4, lsr #21
 80003fe:	d105      	bne.n	800040c <__adddf3+0x230>
 8000400:	0040      	lsls	r0, r0, #1
 8000402:	4149      	adcs	r1, r1
 8000404:	bf28      	it	cs
 8000406:	f041 4100 	orrcs.w	r1, r1, #2147483648	; 0x80000000
 800040a:	bd30      	pop	{r4, r5, pc}
 800040c:	f514 0480 	adds.w	r4, r4, #4194304	; 0x400000
 8000410:	bf3c      	itt	cc
 8000412:	f501 1180 	addcc.w	r1, r1, #1048576	; 0x100000
 8000416:	bd30      	popcc	{r4, r5, pc}
 8000418:	f001 4500 	and.w	r5, r1, #2147483648	; 0x80000000
 800041c:	f045 41fe 	orr.w	r1, r5, #2130706432	; 0x7f000000
 8000420:	f441 0170 	orr.w	r1, r1, #15728640	; 0xf00000
 8000424:	f04f 0000 	mov.w	r0, #0
 8000428:	bd30      	pop	{r4, r5, pc}
 800042a:	ea7f 5c64 	mvns.w	ip, r4, asr #21
 800042e:	bf1a      	itte	ne
 8000430:	4619      	movne	r1, r3
 8000432:	4610      	movne	r0, r2
 8000434:	ea7f 5c65 	mvnseq.w	ip, r5, asr #21
 8000438:	bf1c      	itt	ne
 800043a:	460b      	movne	r3, r1
 800043c:	4602      	movne	r2, r0
 800043e:	ea50 3401 	orrs.w	r4, r0, r1, lsl #12
 8000442:	bf06      	itte	eq
 8000444:	ea52 3503 	orrseq.w	r5, r2, r3, lsl #12
 8000448:	ea91 0f03 	teqeq	r1, r3
 800044c:	f441 2100 	orrne.w	r1, r1, #524288	; 0x80000
 8000450:	bd30      	pop	{r4, r5, pc}
 8000452:	bf00      	nop

08000454 <__aeabi_ui2d>:
 8000454:	f090 0f00 	teq	r0, #0
 8000458:	bf04      	itt	eq
 800045a:	2100      	moveq	r1, #0
 800045c:	4770      	bxeq	lr
 800045e:	b530      	push	{r4, r5, lr}
 8000460:	f44f 6480 	mov.w	r4, #1024	; 0x400
 8000464:	f104 0432 	add.w	r4, r4, #50	; 0x32
 8000468:	f04f 0500 	mov.w	r5, #0
 800046c:	f04f 0100 	mov.w	r1, #0
 8000470:	e750      	b.n	8000314 <__adddf3+0x138>
 8000472:	bf00      	nop

08000474 <__aeabi_i2d>:
 8000474:	f090 0f00 	teq	r0, #0
 8000478:	bf04      	itt	eq
 800047a:	2100      	moveq	r1, #0
 800047c:	4770      	bxeq	lr
 800047e:	b530      	push	{r4, r5, lr}
 8000480:	f44f 6480 	mov.w	r4, #1024	; 0x400
 8000484:	f104 0432 	add.w	r4, r4, #50	; 0x32
 8000488:	f010 4500 	ands.w	r5, r0, #2147483648	; 0x80000000
 800048c:	bf48      	it	mi
 800048e:	4240      	negmi	r0, r0
 8000490:	f04f 0100 	mov.w	r1, #0
 8000494:	e73e      	b.n	8000314 <__adddf3+0x138>
 8000496:	bf00      	nop

08000498 <__aeabi_f2d>:
 8000498:	0042      	lsls	r2, r0, #1
 800049a:	ea4f 01e2 	mov.w	r1, r2, asr #3
 800049e:	ea4f 0131 	mov.w	r1, r1, rrx
 80004a2:	ea4f 7002 	mov.w	r0, r2, lsl #28
 80004a6:	bf1f      	itttt	ne
 80004a8:	f012 437f 	andsne.w	r3, r2, #4278190080	; 0xff000000
 80004ac:	f093 4f7f 	teqne	r3, #4278190080	; 0xff000000
 80004b0:	f081 5160 	eorne.w	r1, r1, #939524096	; 0x38000000
 80004b4:	4770      	bxne	lr
 80004b6:	f032 427f 	bics.w	r2, r2, #4278190080	; 0xff000000
 80004ba:	bf08      	it	eq
 80004bc:	4770      	bxeq	lr
 80004be:	f093 4f7f 	teq	r3, #4278190080	; 0xff000000
 80004c2:	bf04      	itt	eq
 80004c4:	f441 2100 	orreq.w	r1, r1, #524288	; 0x80000
 80004c8:	4770      	bxeq	lr
 80004ca:	b530      	push	{r4, r5, lr}
 80004cc:	f44f 7460 	mov.w	r4, #896	; 0x380
 80004d0:	f001 4500 	and.w	r5, r1, #2147483648	; 0x80000000
 80004d4:	f021 4100 	bic.w	r1, r1, #2147483648	; 0x80000000
 80004d8:	e71c      	b.n	8000314 <__adddf3+0x138>
 80004da:	bf00      	nop

080004dc <__aeabi_ul2d>:
 80004dc:	ea50 0201 	orrs.w	r2, r0, r1
 80004e0:	bf08      	it	eq
 80004e2:	4770      	bxeq	lr
 80004e4:	b530      	push	{r4, r5, lr}
 80004e6:	f04f 0500 	mov.w	r5, #0
 80004ea:	e00a      	b.n	8000502 <__aeabi_l2d+0x16>

080004ec <__aeabi_l2d>:
 80004ec:	ea50 0201 	orrs.w	r2, r0, r1
 80004f0:	bf08      	it	eq
 80004f2:	4770      	bxeq	lr
 80004f4:	b530      	push	{r4, r5, lr}
 80004f6:	f011 4500 	ands.w	r5, r1, #2147483648	; 0x80000000
 80004fa:	d502      	bpl.n	8000502 <__aeabi_l2d+0x16>
 80004fc:	4240      	negs	r0, r0
 80004fe:	eb61 0141 	sbc.w	r1, r1, r1, lsl #1
 8000502:	f44f 6480 	mov.w	r4, #1024	; 0x400
 8000506:	f104 0432 	add.w	r4, r4, #50	; 0x32
 800050a:	ea5f 5c91 	movs.w	ip, r1, lsr #22
 800050e:	f43f aed8 	beq.w	80002c2 <__adddf3+0xe6>
 8000512:	f04f 0203 	mov.w	r2, #3
 8000516:	ea5f 0cdc 	movs.w	ip, ip, lsr #3
 800051a:	bf18      	it	ne
 800051c:	3203      	addne	r2, #3
 800051e:	ea5f 0cdc 	movs.w	ip, ip, lsr #3
 8000522:	bf18      	it	ne
 8000524:	3203      	addne	r2, #3
 8000526:	eb02 02dc 	add.w	r2, r2, ip, lsr #3
 800052a:	f1c2 0320 	rsb	r3, r2, #32
 800052e:	fa00 fc03 	lsl.w	ip, r0, r3
 8000532:	fa20 f002 	lsr.w	r0, r0, r2
 8000536:	fa01 fe03 	lsl.w	lr, r1, r3
 800053a:	ea40 000e 	orr.w	r0, r0, lr
 800053e:	fa21 f102 	lsr.w	r1, r1, r2
 8000542:	4414      	add	r4, r2
 8000544:	e6bd      	b.n	80002c2 <__adddf3+0xe6>
 8000546:	bf00      	nop

08000548 <__aeabi_d2f>:
 8000548:	ea4f 0241 	mov.w	r2, r1, lsl #1
 800054c:	f1b2 43e0 	subs.w	r3, r2, #1879048192	; 0x70000000
 8000550:	bf24      	itt	cs
 8000552:	f5b3 1c00 	subscs.w	ip, r3, #2097152	; 0x200000
 8000556:	f1dc 5cfe 	rsbscs	ip, ip, #532676608	; 0x1fc00000
 800055a:	d90d      	bls.n	8000578 <__aeabi_d2f+0x30>
 800055c:	f001 4c00 	and.w	ip, r1, #2147483648	; 0x80000000
 8000560:	ea4f 02c0 	mov.w	r2, r0, lsl #3
 8000564:	ea4c 7050 	orr.w	r0, ip, r0, lsr #29
 8000568:	f1b2 4f00 	cmp.w	r2, #2147483648	; 0x80000000
 800056c:	eb40 0083 	adc.w	r0, r0, r3, lsl #2
 8000570:	bf08      	it	eq
 8000572:	f020 0001 	biceq.w	r0, r0, #1
 8000576:	4770      	bx	lr
 8000578:	f011 4f80 	tst.w	r1, #1073741824	; 0x40000000
 800057c:	d121      	bne.n	80005c2 <__aeabi_d2f+0x7a>
 800057e:	f113 7238 	adds.w	r2, r3, #48234496	; 0x2e00000
 8000582:	bfbc      	itt	lt
 8000584:	f001 4000 	andlt.w	r0, r1, #2147483648	; 0x80000000
 8000588:	4770      	bxlt	lr
 800058a:	f441 1180 	orr.w	r1, r1, #1048576	; 0x100000
 800058e:	ea4f 5252 	mov.w	r2, r2, lsr #21
 8000592:	f1c2 0218 	rsb	r2, r2, #24
 8000596:	f1c2 0c20 	rsb	ip, r2, #32
 800059a:	fa10 f30c 	lsls.w	r3, r0, ip
 800059e:	fa20 f002 	lsr.w	r0, r0, r2
 80005a2:	bf18      	it	ne
 80005a4:	f040 0001 	orrne.w	r0, r0, #1
 80005a8:	ea4f 23c1 	mov.w	r3, r1, lsl #11
 80005ac:	ea4f 23d3 	mov.w	r3, r3, lsr #11
 80005b0:	fa03 fc0c 	lsl.w	ip, r3, ip
 80005b4:	ea40 000c 	orr.w	r0, r0, ip
 80005b8:	fa23 f302 	lsr.w	r3, r3, r2
 80005bc:	ea4f 0343 	mov.w	r3, r3, lsl #1
 80005c0:	e7cc      	b.n	800055c <__aeabi_d2f+0x14>
 80005c2:	ea7f 5362 	mvns.w	r3, r2, asr #21
 80005c6:	d107      	bne.n	80005d8 <__aeabi_d2f+0x90>
 80005c8:	ea50 3301 	orrs.w	r3, r0, r1, lsl #12
 80005cc:	bf1e      	ittt	ne
 80005ce:	f04f 40fe 	movne.w	r0, #2130706432	; 0x7f000000
 80005d2:	f440 0040 	orrne.w	r0, r0, #12582912	; 0xc00000
 80005d6:	4770      	bxne	lr
 80005d8:	f001 4000 	and.w	r0, r1, #2147483648	; 0x80000000
 80005dc:	f040 40fe 	orr.w	r0, r0, #2130706432	; 0x7f000000
 80005e0:	f440 0000 	orr.w	r0, r0, #8388608	; 0x800000
 80005e4:	4770      	bx	lr
 80005e6:	bf00      	nop

080005e8 <PIDController_Init>:
 80005e8:	2300      	movs	r3, #0
 80005ea:	61c3      	str	r3, [r0, #28]
 80005ec:	6203      	str	r3, [r0, #32]
 80005ee:	6243      	str	r3, [r0, #36]	; 0x24
 80005f0:	ed80 0a00 	vstr	s0, [r0]
 80005f4:	edc0 0a01 	vstr	s1, [r0, #4]
 80005f8:	ed80 1a02 	vstr	s2, [r0, #8]
 80005fc:	edc0 1a03 	vstr	s3, [r0, #12]
 8000600:	ed80 2a04 	vstr	s4, [r0, #16]
 8000604:	edc0 2a05 	vstr	s5, [r0, #20]
 8000608:	4770      	bx	lr

0800060a <SVPWM_Init>:
 800060a:	2300      	movs	r3, #0
 800060c:	6003      	str	r3, [r0, #0]
 800060e:	6043      	str	r3, [r0, #4]
 8000610:	ed80 0a02 	vstr	s0, [r0, #8]
 8000614:	60c3      	str	r3, [r0, #12]
 8000616:	6103      	str	r3, [r0, #16]
 8000618:	6143      	str	r3, [r0, #20]
 800061a:	6183      	str	r3, [r0, #24]
 800061c:	61c3      	str	r3, [r0, #28]
 800061e:	6203      	str	r3, [r0, #32]
 8000620:	6243      	str	r3, [r0, #36]	; 0x24
 8000622:	6283      	str	r3, [r0, #40]	; 0x28
 8000624:	62c3      	str	r3, [r0, #44]	; 0x2c
 8000626:	6303      	str	r3, [r0, #48]	; 0x30
 8000628:	6343      	str	r3, [r0, #52]	; 0x34
 800062a:	4770      	bx	lr

0800062c <SVPWM_Update>:
 800062c:	b510      	push	{r4, lr}
 800062e:	ed9f 7a7c 	vldr	s14, [pc, #496]	; 8000820 <SVPWM_Update+0x1f4>
 8000632:	ed9f 0a7c 	vldr	s0, [pc, #496]	; 8000824 <SVPWM_Update+0x1f8>
 8000636:	4b7c      	ldr	r3, [pc, #496]	; (8000828 <SVPWM_Update+0x1fc>)
 8000638:	6043      	str	r3, [r0, #4]
 800063a:	ed2d 8b06 	vpush	{d8-d10}
 800063e:	ed90 9a02 	vldr	s18, [r0, #8]
 8000642:	ed90 aa04 	vldr	s20, [r0, #16]
 8000646:	eddf 8a79 	vldr	s17, [pc, #484]	; 800082c <SVPWM_Update+0x200>
 800064a:	ed80 aa0a 	vstr	s20, [r0, #40]	; 0x28
 800064e:	eec7 7a09 	vdiv.f32	s15, s14, s18
 8000652:	4604      	mov	r4, r0
 8000654:	ed90 7a03 	vldr	s14, [r0, #12]
 8000658:	edc0 7a09 	vstr	s15, [r0, #36]	; 0x24
 800065c:	ee77 7a87 	vadd.f32	s15, s15, s14
 8000660:	edc0 8a00 	vstr	s17, [r0]
 8000664:	eef4 7ac0 	vcmpe.f32	s15, s0
 8000668:	eef1 fa10 	vmrs	APSR_nzcv, fpscr
 800066c:	bfa8      	it	ge
 800066e:	ee77 7ac0 	vsubge.f32	s15, s15, s0
 8000672:	edc0 7a03 	vstr	s15, [r0, #12]
 8000676:	edd0 9a03 	vldr	s19, [r0, #12]
 800067a:	edc0 9a04 	vstr	s19, [r0, #16]
 800067e:	ee30 0a69 	vsub.f32	s0, s0, s19
 8000682:	f001 fecd 	bl	8002420 <sinf>
 8000686:	ee20 0a28 	vmul.f32	s0, s0, s17
 800068a:	ee20 8a09 	vmul.f32	s16, s0, s18
 800068e:	eeb0 0a69 	vmov.f32	s0, s19
 8000692:	ed84 8a0b 	vstr	s16, [r4, #44]	; 0x2c
 8000696:	f001 fec3 	bl	8002420 <sinf>
 800069a:	ee20 0a28 	vmul.f32	s0, s0, s17
 800069e:	ee39 7a48 	vsub.f32	s14, s18, s16
 80006a2:	ee20 0a09 	vmul.f32	s0, s0, s18
 80006a6:	ee79 9aca 	vsub.f32	s19, s19, s20
 80006aa:	ee37 7a40 	vsub.f32	s14, s14, s0
 80006ae:	eef6 7a00 	vmov.f32	s15, #96	; 0x3f000000  0.5
 80006b2:	ee27 7a27 	vmul.f32	s14, s14, s15
 80006b6:	eef5 9ac0 	vcmpe.f32	s19, #0.0
 80006ba:	eef1 fa10 	vmrs	APSR_nzcv, fpscr
 80006be:	ed84 0a0c 	vstr	s0, [r4, #48]	; 0x30
 80006c2:	ed84 7a0d 	vstr	s14, [r4, #52]	; 0x34
 80006c6:	d511      	bpl.n	80006ec <SVPWM_Update+0xc0>
 80006c8:	edd4 7a05 	vldr	s15, [r4, #20]
 80006cc:	eef1 6a04 	vmov.f32	s13, #20	; 0x40a00000  5.0
 80006d0:	eef4 7a66 	vcmp.f32	s15, s13
 80006d4:	eef1 fa10 	vmrs	APSR_nzcv, fpscr
 80006d8:	bf19      	ittee	ne
 80006da:	eef7 6a00 	vmovne.f32	s13, #112	; 0x3f800000  1.0
 80006de:	ee77 7aa6 	vaddne.f32	s15, s15, s13
 80006e2:	2300      	moveq	r3, #0
 80006e4:	6163      	streq	r3, [r4, #20]
 80006e6:	bf18      	it	ne
 80006e8:	edc4 7a05 	vstrne	s15, [r4, #20]
 80006ec:	edd4 7a05 	vldr	s15, [r4, #20]
 80006f0:	eef5 7a40 	vcmp.f32	s15, #0.0
 80006f4:	eef1 fa10 	vmrs	APSR_nzcv, fpscr
 80006f8:	d13f      	bne.n	800077a <SVPWM_Update+0x14e>
 80006fa:	ee78 7a00 	vadd.f32	s15, s16, s0
 80006fe:	ee77 7a87 	vadd.f32	s15, s15, s14
 8000702:	edc4 7a06 	vstr	s15, [r4, #24]
 8000706:	ee30 0a07 	vadd.f32	s0, s0, s14
 800070a:	ed84 7a08 	vstr	s14, [r4, #32]
 800070e:	ed84 0a07 	vstr	s0, [r4, #28]
 8000712:	edd4 7a06 	vldr	s15, [r4, #24]
 8000716:	4b46      	ldr	r3, [pc, #280]	; (8000830 <SVPWM_Update+0x204>)
 8000718:	ee87 7a89 	vdiv.f32	s14, s15, s18
 800071c:	6ada      	ldr	r2, [r3, #44]	; 0x2c
 800071e:	3201      	adds	r2, #1
 8000720:	ee07 2a90 	vmov	s15, r2
 8000724:	eef8 7a67 	vcvt.f32.u32	s15, s15
 8000728:	ee67 7a27 	vmul.f32	s15, s14, s15
 800072c:	eefc 7ae7 	vcvt.u32.f32	s15, s15
 8000730:	edc3 7a0d 	vstr	s15, [r3, #52]	; 0x34
 8000734:	edd4 7a07 	vldr	s15, [r4, #28]
 8000738:	6ada      	ldr	r2, [r3, #44]	; 0x2c
 800073a:	ee87 7a89 	vdiv.f32	s14, s15, s18
 800073e:	3201      	adds	r2, #1
 8000740:	ee07 2a90 	vmov	s15, r2
 8000744:	eef8 7a67 	vcvt.f32.u32	s15, s15
 8000748:	ee67 7a27 	vmul.f32	s15, s14, s15
 800074c:	eefc 7ae7 	vcvt.u32.f32	s15, s15
 8000750:	edc3 7a0e 	vstr	s15, [r3, #56]	; 0x38
 8000754:	edd4 7a08 	vldr	s15, [r4, #32]
 8000758:	6ada      	ldr	r2, [r3, #44]	; 0x2c
 800075a:	ee87 7a89 	vdiv.f32	s14, s15, s18
 800075e:	3201      	adds	r2, #1
 8000760:	ecbd 8b06 	vpop	{d8-d10}
 8000764:	ee07 2a90 	vmov	s15, r2
 8000768:	eef8 7a67 	vcvt.f32.u32	s15, s15
 800076c:	ee67 7a27 	vmul.f32	s15, s14, s15
 8000770:	eefc 7ae7 	vcvt.u32.f32	s15, s15
 8000774:	edc3 7a0f 	vstr	s15, [r3, #60]	; 0x3c
 8000778:	bd10      	pop	{r4, pc}
 800077a:	eef7 6a00 	vmov.f32	s13, #112	; 0x3f800000  1.0
 800077e:	eef4 7a66 	vcmp.f32	s15, s13
 8000782:	eef1 fa10 	vmrs	APSR_nzcv, fpscr
 8000786:	d106      	bne.n	8000796 <SVPWM_Update+0x16a>
 8000788:	ee78 7a07 	vadd.f32	s15, s16, s14
 800078c:	ee38 0a00 	vadd.f32	s0, s16, s0
 8000790:	edc4 7a06 	vstr	s15, [r4, #24]
 8000794:	e7b7      	b.n	8000706 <SVPWM_Update+0xda>
 8000796:	eef0 6a00 	vmov.f32	s13, #0	; 0x40000000  2.0
 800079a:	eef4 7a66 	vcmp.f32	s15, s13
 800079e:	eef1 fa10 	vmrs	APSR_nzcv, fpscr
 80007a2:	d10c      	bne.n	80007be <SVPWM_Update+0x192>
 80007a4:	ee78 7a00 	vadd.f32	s15, s16, s0
 80007a8:	ee30 8a07 	vadd.f32	s16, s0, s14
 80007ac:	ee77 7a87 	vadd.f32	s15, s15, s14
 80007b0:	ed84 7a06 	vstr	s14, [r4, #24]
 80007b4:	edc4 7a07 	vstr	s15, [r4, #28]
 80007b8:	ed84 8a08 	vstr	s16, [r4, #32]
 80007bc:	e7a9      	b.n	8000712 <SVPWM_Update+0xe6>
 80007be:	eef0 6a08 	vmov.f32	s13, #8	; 0x40400000  3.0
 80007c2:	eef4 7a66 	vcmp.f32	s15, s13
 80007c6:	eef1 fa10 	vmrs	APSR_nzcv, fpscr
 80007ca:	d10a      	bne.n	80007e2 <SVPWM_Update+0x1b6>
 80007cc:	ee78 7a07 	vadd.f32	s15, s16, s14
 80007d0:	ed84 7a06 	vstr	s14, [r4, #24]
 80007d4:	edc4 7a07 	vstr	s15, [r4, #28]
 80007d8:	ee38 8a00 	vadd.f32	s16, s16, s0
 80007dc:	ee38 8a07 	vadd.f32	s16, s16, s14
 80007e0:	e7ea      	b.n	80007b8 <SVPWM_Update+0x18c>
 80007e2:	eef1 6a00 	vmov.f32	s13, #16	; 0x40800000  4.0
 80007e6:	eef4 7a66 	vcmp.f32	s15, s13
 80007ea:	eef1 fa10 	vmrs	APSR_nzcv, fpscr
 80007ee:	d106      	bne.n	80007fe <SVPWM_Update+0x1d2>
 80007f0:	ee70 7a07 	vadd.f32	s15, s0, s14
 80007f4:	ed84 7a07 	vstr	s14, [r4, #28]
 80007f8:	edc4 7a06 	vstr	s15, [r4, #24]
 80007fc:	e7ec      	b.n	80007d8 <SVPWM_Update+0x1ac>
 80007fe:	eef1 6a04 	vmov.f32	s13, #20	; 0x40a00000  5.0
 8000802:	eef4 7a66 	vcmp.f32	s15, s13
 8000806:	eef1 fa10 	vmrs	APSR_nzcv, fpscr
 800080a:	d182      	bne.n	8000712 <SVPWM_Update+0xe6>
 800080c:	ee38 0a00 	vadd.f32	s0, s16, s0
 8000810:	ed84 7a07 	vstr	s14, [r4, #28]
 8000814:	ee30 0a07 	vadd.f32	s0, s0, s14
 8000818:	ed84 0a06 	vstr	s0, [r4, #24]
 800081c:	e7de      	b.n	80007dc <SVPWM_Update+0x1b0>
 800081e:	bf00      	nop
 8000820:	3d80adfd 	.word	0x3d80adfd
 8000824:	3f860a92 	.word	0x3f860a92
 8000828:	3c23d70a 	.word	0x3c23d70a
 800082c:	3f666666 	.word	0x3f666666
 8000830:	40012c00 	.word	0x40012c00

08000834 <VHZ_Init>:
 8000834:	edc0 0a01 	vstr	s1, [r0, #4]
 8000838:	edc0 1a03 	vstr	s3, [r0, #12]
 800083c:	ee70 0ac0 	vsub.f32	s1, s1, s0
 8000840:	ee71 1ac1 	vsub.f32	s3, s3, s2
 8000844:	2300      	movs	r3, #0
 8000846:	eec1 7aa0 	vdiv.f32	s15, s3, s1
 800084a:	6143      	str	r3, [r0, #20]
 800084c:	ed80 0a00 	vstr	s0, [r0]
 8000850:	ed80 1a02 	vstr	s2, [r0, #8]
 8000854:	edc0 7a04 	vstr	s15, [r0, #16]
 8000858:	ed80 0a06 	vstr	s0, [r0, #24]
 800085c:	4770      	bx	lr

0800085e <VHZ_Update>:
 800085e:	edd0 7a06 	vldr	s15, [r0, #24]
 8000862:	edd0 6a00 	vldr	s13, [r0]
 8000866:	eef4 7ae6 	vcmpe.f32	s15, s13
 800086a:	eef1 fa10 	vmrs	APSR_nzcv, fpscr
 800086e:	d802      	bhi.n	8000876 <VHZ_Update+0x18>
 8000870:	6883      	ldr	r3, [r0, #8]
 8000872:	6143      	str	r3, [r0, #20]
 8000874:	4770      	bx	lr
 8000876:	ed90 7a01 	vldr	s14, [r0, #4]
 800087a:	dd0f      	ble.n	800089c <VHZ_Update+0x3e>
 800087c:	eef4 7ac7 	vcmpe.f32	s15, s14
 8000880:	eef1 fa10 	vmrs	APSR_nzcv, fpscr
 8000884:	d80a      	bhi.n	800089c <VHZ_Update+0x3e>
 8000886:	ee77 7ae6 	vsub.f32	s15, s15, s13
 800088a:	ed90 7a02 	vldr	s14, [r0, #8]
 800088e:	edd0 6a04 	vldr	s13, [r0, #16]
 8000892:	eea6 7aa7 	vfma.f32	s14, s13, s15
 8000896:	ed80 7a05 	vstr	s14, [r0, #20]
 800089a:	4770      	bx	lr
 800089c:	eef4 7ac7 	vcmpe.f32	s15, s14
 80008a0:	eef1 fa10 	vmrs	APSR_nzcv, fpscr
 80008a4:	dde6      	ble.n	8000874 <VHZ_Update+0x16>
 80008a6:	68c3      	ldr	r3, [r0, #12]
 80008a8:	e7e3      	b.n	8000872 <VHZ_Update+0x14>

080008aa <SystemClock_Config>:
 80008aa:	b500      	push	{lr}
 80008ac:	b097      	sub	sp, #92	; 0x5c
 80008ae:	2224      	movs	r2, #36	; 0x24
 80008b0:	2100      	movs	r1, #0
 80008b2:	a806      	add	r0, sp, #24
 80008b4:	f001 fdac 	bl	8002410 <memset>
 80008b8:	2214      	movs	r2, #20
 80008ba:	2100      	movs	r1, #0
 80008bc:	4668      	mov	r0, sp
 80008be:	f001 fda7 	bl	8002410 <memset>
 80008c2:	f44f 7180 	mov.w	r1, #256	; 0x100
 80008c6:	2240      	movs	r2, #64	; 0x40
 80008c8:	e9cd 1208 	strd	r1, r2, [sp, #32]
 80008cc:	2001      	movs	r0, #1
 80008ce:	220a      	movs	r2, #10
 80008d0:	2302      	movs	r3, #2
 80008d2:	e9cd 0211 	strd	r0, r2, [sp, #68]	; 0x44
 80008d6:	2207      	movs	r2, #7
 80008d8:	a805      	add	r0, sp, #20
 80008da:	e9cd 2313 	strd	r2, r3, [sp, #76]	; 0x4c
 80008de:	9305      	str	r3, [sp, #20]
 80008e0:	e9cd 330f 	strd	r3, r3, [sp, #60]	; 0x3c
 80008e4:	9315      	str	r3, [sp, #84]	; 0x54
 80008e6:	f000 fc97 	bl	8001218 <HAL_RCC_OscConfig>
 80008ea:	f04f 0c0f 	mov.w	ip, #15
 80008ee:	2303      	movs	r3, #3
 80008f0:	e9cd c300 	strd	ip, r3, [sp]
 80008f4:	f04f 0e00 	mov.w	lr, #0
 80008f8:	f44f 63a0 	mov.w	r3, #1280	; 0x500
 80008fc:	e9cd e302 	strd	lr, r3, [sp, #8]
 8000900:	2104      	movs	r1, #4
 8000902:	f44f 6380 	mov.w	r3, #1024	; 0x400
 8000906:	4668      	mov	r0, sp
 8000908:	9304      	str	r3, [sp, #16]
 800090a:	f000 ff2f 	bl	800176c <HAL_RCC_ClockConfig>
 800090e:	f44f 7000 	mov.w	r0, #512	; 0x200
 8000912:	f000 fbbb 	bl	800108c <HAL_PWREx_ControlVoltageScaling>
 8000916:	b017      	add	sp, #92	; 0x5c
 8000918:	f85d fb04 	ldr.w	pc, [sp], #4
 800091c:	0000      	movs	r0, r0
	...

08000920 <main>:
 8000920:	b580      	push	{r7, lr}
 8000922:	ed9f 0a81 	vldr	s0, [pc, #516]	; 8000b28 <main+0x208>
 8000926:	4881      	ldr	r0, [pc, #516]	; (8000b2c <main+0x20c>)
 8000928:	4d81      	ldr	r5, [pc, #516]	; (8000b30 <main+0x210>)
 800092a:	b0a0      	sub	sp, #128	; 0x80
 800092c:	f7ff fe6d 	bl	800060a <SVPWM_Init>
 8000930:	eddf 1a80 	vldr	s3, [pc, #512]	; 8000b34 <main+0x214>
 8000934:	eddf 0a80 	vldr	s1, [pc, #512]	; 8000b38 <main+0x218>
 8000938:	ed9f 0a80 	vldr	s0, [pc, #512]	; 8000b3c <main+0x21c>
 800093c:	4880      	ldr	r0, [pc, #512]	; (8000b40 <main+0x220>)
 800093e:	eeb2 1a04 	vmov.f32	s2, #36	; 0x41200000  10.0
 8000942:	f7ff ff77 	bl	8000834 <VHZ_Init>
 8000946:	eddf 2a7f 	vldr	s5, [pc, #508]	; 8000b44 <main+0x224>
 800094a:	ed9f 3a77 	vldr	s6, [pc, #476]	; 8000b28 <main+0x208>
 800094e:	eddf 1a7e 	vldr	s3, [pc, #504]	; 8000b48 <main+0x228>
 8000952:	ed9f 1a7e 	vldr	s2, [pc, #504]	; 8000b4c <main+0x22c>
 8000956:	487e      	ldr	r0, [pc, #504]	; (8000b50 <main+0x230>)
 8000958:	eeb0 2a62 	vmov.f32	s4, s5
 800095c:	eef0 0a62 	vmov.f32	s1, s5
 8000960:	eeb1 0a04 	vmov.f32	s0, #20	; 0x40a00000  5.0
 8000964:	f7ff fe40 	bl	80005e8 <PIDController_Init>
 8000968:	f000 fa2e 	bl	8000dc8 <HAL_Init>
 800096c:	f7ff ff9d 	bl	80008aa <SystemClock_Config>
 8000970:	4b78      	ldr	r3, [pc, #480]	; (8000b54 <main+0x234>)
 8000972:	6cda      	ldr	r2, [r3, #76]	; 0x4c
 8000974:	f042 0201 	orr.w	r2, r2, #1
 8000978:	64da      	str	r2, [r3, #76]	; 0x4c
 800097a:	6cda      	ldr	r2, [r3, #76]	; 0x4c
 800097c:	f002 0201 	and.w	r2, r2, #1
 8000980:	9200      	str	r2, [sp, #0]
 8000982:	9a00      	ldr	r2, [sp, #0]
 8000984:	6cda      	ldr	r2, [r3, #76]	; 0x4c
 8000986:	f042 0202 	orr.w	r2, r2, #2
 800098a:	64da      	str	r2, [r3, #76]	; 0x4c
 800098c:	6cdb      	ldr	r3, [r3, #76]	; 0x4c
 800098e:	f003 0302 	and.w	r3, r3, #2
 8000992:	9301      	str	r3, [sp, #4]
 8000994:	2210      	movs	r2, #16
 8000996:	2100      	movs	r1, #0
 8000998:	a805      	add	r0, sp, #20
 800099a:	2400      	movs	r4, #0
 800099c:	9b01      	ldr	r3, [sp, #4]
 800099e:	f001 fd37 	bl	8002410 <memset>
 80009a2:	2214      	movs	r2, #20
 80009a4:	2100      	movs	r1, #0
 80009a6:	a809      	add	r0, sp, #36	; 0x24
 80009a8:	f001 fd32 	bl	8002410 <memset>
 80009ac:	4621      	mov	r1, r4
 80009ae:	221c      	movs	r2, #28
 80009b0:	a80e      	add	r0, sp, #56	; 0x38
 80009b2:	e9cd 4402 	strd	r4, r4, [sp, #8]
 80009b6:	9404      	str	r4, [sp, #16]
 80009b8:	f001 fd2a 	bl	8002410 <memset>
 80009bc:	222c      	movs	r2, #44	; 0x2c
 80009be:	4621      	mov	r1, r4
 80009c0:	a815      	add	r0, sp, #84	; 0x54
 80009c2:	f001 fd25 	bl	8002410 <memset>
 80009c6:	4b64      	ldr	r3, [pc, #400]	; (8000b58 <main+0x238>)
 80009c8:	61ac      	str	r4, [r5, #24]
 80009ca:	2660      	movs	r6, #96	; 0x60
 80009cc:	2763      	movs	r7, #99	; 0x63
 80009ce:	f04f 084f 	mov.w	r8, #79	; 0x4f
 80009d2:	4628      	mov	r0, r5
 80009d4:	e9c5 6702 	strd	r6, r7, [r5, #8]
 80009d8:	e9c5 3800 	strd	r3, r8, [r5]
 80009dc:	e9c5 4404 	strd	r4, r4, [r5, #16]
 80009e0:	f001 f96a 	bl	8001cb8 <HAL_TIM_Base_Init>
 80009e4:	f44f 5380 	mov.w	r3, #4096	; 0x1000
 80009e8:	a905      	add	r1, sp, #20
 80009ea:	4628      	mov	r0, r5
 80009ec:	9305      	str	r3, [sp, #20]
 80009ee:	f001 fa87 	bl	8001f00 <HAL_TIM_ConfigClockSource>
 80009f2:	4628      	mov	r0, r5
 80009f4:	f001 f990 	bl	8001d18 <HAL_TIM_PWM_Init>
 80009f8:	a909      	add	r1, sp, #36	; 0x24
 80009fa:	4628      	mov	r0, r5
 80009fc:	e9cd 4409 	strd	r4, r4, [sp, #36]	; 0x24
 8000a00:	f001 fb66 	bl	80020d0 <HAL_TIM_SlaveConfigSynchro>
 8000a04:	a902      	add	r1, sp, #8
 8000a06:	4628      	mov	r0, r5
 8000a08:	e9cd 4402 	strd	r4, r4, [sp, #8]
 8000a0c:	9404      	str	r4, [sp, #16]
 8000a0e:	f001 fc65 	bl	80022dc <HAL_TIMEx_MasterConfigSynchronization>
 8000a12:	4622      	mov	r2, r4
 8000a14:	a90e      	add	r1, sp, #56	; 0x38
 8000a16:	4628      	mov	r0, r5
 8000a18:	e9cd 640e 	strd	r6, r4, [sp, #56]	; 0x38
 8000a1c:	e9cd 4410 	strd	r4, r4, [sp, #64]	; 0x40
 8000a20:	e9cd 4412 	strd	r4, r4, [sp, #72]	; 0x48
 8000a24:	9414      	str	r4, [sp, #80]	; 0x50
 8000a26:	f001 f9df 	bl	8001de8 <HAL_TIM_PWM_ConfigChannel>
 8000a2a:	2204      	movs	r2, #4
 8000a2c:	a90e      	add	r1, sp, #56	; 0x38
 8000a2e:	4628      	mov	r0, r5
 8000a30:	f001 f9da 	bl	8001de8 <HAL_TIM_PWM_ConfigChannel>
 8000a34:	2208      	movs	r2, #8
 8000a36:	a90e      	add	r1, sp, #56	; 0x38
 8000a38:	4628      	mov	r0, r5
 8000a3a:	f001 f9d5 	bl	8001de8 <HAL_TIM_PWM_ConfigChannel>
 8000a3e:	2364      	movs	r3, #100	; 0x64
 8000a40:	e9cd 3418 	strd	r3, r4, [sp, #96]	; 0x60
 8000a44:	f44f 5300 	mov.w	r3, #8192	; 0x2000
 8000a48:	e9cd 341a 	strd	r3, r4, [sp, #104]	; 0x68
 8000a4c:	a915      	add	r1, sp, #84	; 0x54
 8000a4e:	f04f 7300 	mov.w	r3, #33554432	; 0x2000000
 8000a52:	4628      	mov	r0, r5
 8000a54:	e9cd 341d 	strd	r3, r4, [sp, #116]	; 0x74
 8000a58:	e9cd 4415 	strd	r4, r4, [sp, #84]	; 0x54
 8000a5c:	9417      	str	r4, [sp, #92]	; 0x5c
 8000a5e:	941c      	str	r4, [sp, #112]	; 0x70
 8000a60:	941f      	str	r4, [sp, #124]	; 0x7c
 8000a62:	f001 fc6f 	bl	8002344 <HAL_TIMEx_ConfigBreakDeadTime>
 8000a66:	4628      	mov	r0, r5
 8000a68:	4e3c      	ldr	r6, [pc, #240]	; (8000b5c <main+0x23c>)
 8000a6a:	f000 f8e3 	bl	8000c34 <HAL_TIM_MspPostInit>
 8000a6e:	2214      	movs	r2, #20
 8000a70:	4621      	mov	r1, r4
 8000a72:	a815      	add	r0, sp, #84	; 0x54
 8000a74:	f001 fccc 	bl	8002410 <memset>
 8000a78:	4b39      	ldr	r3, [pc, #228]	; (8000b60 <main+0x240>)
 8000a7a:	61b4      	str	r4, [r6, #24]
 8000a7c:	4630      	mov	r0, r6
 8000a7e:	e9c6 3800 	strd	r3, r8, [r6]
 8000a82:	e9c6 4702 	strd	r4, r7, [r6, #8]
 8000a86:	e9c6 4404 	strd	r4, r4, [r6, #16]
 8000a8a:	e9cd 440e 	strd	r4, r4, [sp, #56]	; 0x38
 8000a8e:	9410      	str	r4, [sp, #64]	; 0x40
 8000a90:	f001 f912 	bl	8001cb8 <HAL_TIM_Base_Init>
 8000a94:	a915      	add	r1, sp, #84	; 0x54
 8000a96:	4630      	mov	r0, r6
 8000a98:	e9cd 4415 	strd	r4, r4, [sp, #84]	; 0x54
 8000a9c:	f001 fb18 	bl	80020d0 <HAL_TIM_SlaveConfigSynchro>
 8000aa0:	a90e      	add	r1, sp, #56	; 0x38
 8000aa2:	4630      	mov	r0, r6
 8000aa4:	940e      	str	r4, [sp, #56]	; 0x38
 8000aa6:	9410      	str	r4, [sp, #64]	; 0x40
 8000aa8:	f001 fc18 	bl	80022dc <HAL_TIMEx_MasterConfigSynchronization>
 8000aac:	4621      	mov	r1, r4
 8000aae:	4628      	mov	r0, r5
 8000ab0:	f001 fbb4 	bl	800221c <HAL_TIM_PWM_Start>
 8000ab4:	4621      	mov	r1, r4
 8000ab6:	4628      	mov	r0, r5
 8000ab8:	f001 fc0e 	bl	80022d8 <HAL_TIMEx_PWMN_Start>
 8000abc:	2104      	movs	r1, #4
 8000abe:	4628      	mov	r0, r5
 8000ac0:	f001 fbac 	bl	800221c <HAL_TIM_PWM_Start>
 8000ac4:	2104      	movs	r1, #4
 8000ac6:	4628      	mov	r0, r5
 8000ac8:	f001 fc06 	bl	80022d8 <HAL_TIMEx_PWMN_Start>
 8000acc:	2108      	movs	r1, #8
 8000ace:	4628      	mov	r0, r5
 8000ad0:	f001 fba4 	bl	800221c <HAL_TIM_PWM_Start>
 8000ad4:	2108      	movs	r1, #8
 8000ad6:	4628      	mov	r0, r5
 8000ad8:	f001 fbfe 	bl	80022d8 <HAL_TIMEx_PWMN_Start>
 8000adc:	4630      	mov	r0, r6
 8000ade:	f000 ffd1 	bl	8001a84 <HAL_TIM_Base_Start_IT>
 8000ae2:	a70f      	add	r7, pc, #60	; (adr r7, 8000b20 <main+0x200>)
 8000ae4:	e9d7 6700 	ldrd	r6, r7, [r7]
 8000ae8:	4c1e      	ldr	r4, [pc, #120]	; (8000b64 <main+0x244>)
 8000aea:	2500      	movs	r5, #0
 8000aec:	edd4 7a00 	vldr	s15, [r4]
 8000af0:	eeb2 7a04 	vmov.f32	s14, #36	; 0x41200000  10.0
 8000af4:	eef4 7ac7 	vcmpe.f32	s15, s14
 8000af8:	eef1 fa10 	vmrs	APSR_nzcv, fpscr
 8000afc:	db04      	blt.n	8000b08 <main+0x1e8>
 8000afe:	6025      	str	r5, [r4, #0]
 8000b00:	2001      	movs	r0, #1
 8000b02:	f000 f983 	bl	8000e0c <HAL_Delay>
 8000b06:	e7f1      	b.n	8000aec <main+0x1cc>
 8000b08:	ee17 0a90 	vmov	r0, s15
 8000b0c:	f7ff fcc4 	bl	8000498 <__aeabi_f2d>
 8000b10:	4632      	mov	r2, r6
 8000b12:	463b      	mov	r3, r7
 8000b14:	f7ff fb62 	bl	80001dc <__adddf3>
 8000b18:	f7ff fd16 	bl	8000548 <__aeabi_d2f>
 8000b1c:	6020      	str	r0, [r4, #0]
 8000b1e:	e7ef      	b.n	8000b00 <main+0x1e0>
 8000b20:	d2f1a9fc 	.word	0xd2f1a9fc
 8000b24:	3f50624d 	.word	0x3f50624d
 8000b28:	461c4000 	.word	0x461c4000
 8000b2c:	2000010c 	.word	0x2000010c
 8000b30:	200000c0 	.word	0x200000c0
 8000b34:	42c80000 	.word	0x42c80000
 8000b38:	3dcccccd 	.word	0x3dcccccd
 8000b3c:	3c23d70a 	.word	0x3c23d70a
 8000b40:	200000a4 	.word	0x200000a4
 8000b44:	00000000 	.word	0x00000000
 8000b48:	43fa0000 	.word	0x43fa0000
 8000b4c:	c3fa0000 	.word	0xc3fa0000
 8000b50:	2000007c 	.word	0x2000007c
 8000b54:	40021000 	.word	0x40021000
 8000b58:	40012c00 	.word	0x40012c00
 8000b5c:	20000030 	.word	0x20000030
 8000b60:	40014000 	.word	0x40014000
 8000b64:	20000144 	.word	0x20000144

08000b68 <HAL_TIM_PeriodElapsedCallback>:
 8000b68:	b538      	push	{r3, r4, r5, lr}
 8000b6a:	4c09      	ldr	r4, [pc, #36]	; (8000b90 <HAL_TIM_PeriodElapsedCallback+0x28>)
 8000b6c:	4d09      	ldr	r5, [pc, #36]	; (8000b94 <HAL_TIM_PeriodElapsedCallback+0x2c>)
 8000b6e:	edd4 7a05 	vldr	s15, [r4, #20]
 8000b72:	4b09      	ldr	r3, [pc, #36]	; (8000b98 <HAL_TIM_PeriodElapsedCallback+0x30>)
 8000b74:	eefd 7ae7 	vcvt.s32.f32	s15, s15
 8000b78:	4628      	mov	r0, r5
 8000b7a:	edc3 7a00 	vstr	s15, [r3]
 8000b7e:	f7ff fe6e 	bl	800085e <VHZ_Update>
 8000b82:	4629      	mov	r1, r5
 8000b84:	4620      	mov	r0, r4
 8000b86:	4a05      	ldr	r2, [pc, #20]	; (8000b9c <HAL_TIM_PeriodElapsedCallback+0x34>)
 8000b88:	e8bd 4038 	ldmia.w	sp!, {r3, r4, r5, lr}
 8000b8c:	f7ff bd4e 	b.w	800062c <SVPWM_Update>
 8000b90:	2000010c 	.word	0x2000010c
 8000b94:	200000a4 	.word	0x200000a4
 8000b98:	20000028 	.word	0x20000028
 8000b9c:	200000c0 	.word	0x200000c0

08000ba0 <HAL_MspInit>:
 8000ba0:	4b0a      	ldr	r3, [pc, #40]	; (8000bcc <HAL_MspInit+0x2c>)
 8000ba2:	6e1a      	ldr	r2, [r3, #96]	; 0x60
 8000ba4:	f042 0201 	orr.w	r2, r2, #1
 8000ba8:	661a      	str	r2, [r3, #96]	; 0x60
 8000baa:	6e1a      	ldr	r2, [r3, #96]	; 0x60
 8000bac:	b082      	sub	sp, #8
 8000bae:	f002 0201 	and.w	r2, r2, #1
 8000bb2:	9200      	str	r2, [sp, #0]
 8000bb4:	9a00      	ldr	r2, [sp, #0]
 8000bb6:	6d9a      	ldr	r2, [r3, #88]	; 0x58
 8000bb8:	f042 5280 	orr.w	r2, r2, #268435456	; 0x10000000
 8000bbc:	659a      	str	r2, [r3, #88]	; 0x58
 8000bbe:	6d9b      	ldr	r3, [r3, #88]	; 0x58
 8000bc0:	f003 5380 	and.w	r3, r3, #268435456	; 0x10000000
 8000bc4:	9301      	str	r3, [sp, #4]
 8000bc6:	9b01      	ldr	r3, [sp, #4]
 8000bc8:	b002      	add	sp, #8
 8000bca:	4770      	bx	lr
 8000bcc:	40021000 	.word	0x40021000

08000bd0 <HAL_TIM_Base_MspInit>:
 8000bd0:	b507      	push	{r0, r1, r2, lr}
 8000bd2:	6803      	ldr	r3, [r0, #0]
 8000bd4:	4a14      	ldr	r2, [pc, #80]	; (8000c28 <HAL_TIM_Base_MspInit+0x58>)
 8000bd6:	4293      	cmp	r3, r2
 8000bd8:	d114      	bne.n	8000c04 <HAL_TIM_Base_MspInit+0x34>
 8000bda:	4b14      	ldr	r3, [pc, #80]	; (8000c2c <HAL_TIM_Base_MspInit+0x5c>)
 8000bdc:	6e1a      	ldr	r2, [r3, #96]	; 0x60
 8000bde:	f442 6200 	orr.w	r2, r2, #2048	; 0x800
 8000be2:	661a      	str	r2, [r3, #96]	; 0x60
 8000be4:	6e1b      	ldr	r3, [r3, #96]	; 0x60
 8000be6:	f403 6300 	and.w	r3, r3, #2048	; 0x800
 8000bea:	9300      	str	r3, [sp, #0]
 8000bec:	9b00      	ldr	r3, [sp, #0]
 8000bee:	2200      	movs	r2, #0
 8000bf0:	4611      	mov	r1, r2
 8000bf2:	2018      	movs	r0, #24
 8000bf4:	f000 f930 	bl	8000e58 <HAL_NVIC_SetPriority>
 8000bf8:	2018      	movs	r0, #24
 8000bfa:	b003      	add	sp, #12
 8000bfc:	f85d eb04 	ldr.w	lr, [sp], #4
 8000c00:	f000 b95e 	b.w	8000ec0 <HAL_NVIC_EnableIRQ>
 8000c04:	4a0a      	ldr	r2, [pc, #40]	; (8000c30 <HAL_TIM_Base_MspInit+0x60>)
 8000c06:	4293      	cmp	r3, r2
 8000c08:	d10a      	bne.n	8000c20 <HAL_TIM_Base_MspInit+0x50>
 8000c0a:	4b08      	ldr	r3, [pc, #32]	; (8000c2c <HAL_TIM_Base_MspInit+0x5c>)
 8000c0c:	6e1a      	ldr	r2, [r3, #96]	; 0x60
 8000c0e:	f442 3280 	orr.w	r2, r2, #65536	; 0x10000
 8000c12:	661a      	str	r2, [r3, #96]	; 0x60
 8000c14:	6e1b      	ldr	r3, [r3, #96]	; 0x60
 8000c16:	f403 3380 	and.w	r3, r3, #65536	; 0x10000
 8000c1a:	9301      	str	r3, [sp, #4]
 8000c1c:	9b01      	ldr	r3, [sp, #4]
 8000c1e:	e7e6      	b.n	8000bee <HAL_TIM_Base_MspInit+0x1e>
 8000c20:	b003      	add	sp, #12
 8000c22:	f85d fb04 	ldr.w	pc, [sp], #4
 8000c26:	bf00      	nop
 8000c28:	40012c00 	.word	0x40012c00
 8000c2c:	40021000 	.word	0x40021000
 8000c30:	40014000 	.word	0x40014000

08000c34 <HAL_TIM_MspPostInit>:
 8000c34:	b530      	push	{r4, r5, lr}
 8000c36:	4604      	mov	r4, r0
 8000c38:	b089      	sub	sp, #36	; 0x24
 8000c3a:	2214      	movs	r2, #20
 8000c3c:	2100      	movs	r1, #0
 8000c3e:	a803      	add	r0, sp, #12
 8000c40:	f001 fbe6 	bl	8002410 <memset>
 8000c44:	6822      	ldr	r2, [r4, #0]
 8000c46:	4b18      	ldr	r3, [pc, #96]	; (8000ca8 <HAL_TIM_MspPostInit+0x74>)
 8000c48:	429a      	cmp	r2, r3
 8000c4a:	d12a      	bne.n	8000ca2 <HAL_TIM_MspPostInit+0x6e>
 8000c4c:	f503 4364 	add.w	r3, r3, #58368	; 0xe400
 8000c50:	2502      	movs	r5, #2
 8000c52:	6cda      	ldr	r2, [r3, #76]	; 0x4c
 8000c54:	f042 0201 	orr.w	r2, r2, #1
 8000c58:	64da      	str	r2, [r3, #76]	; 0x4c
 8000c5a:	6cda      	ldr	r2, [r3, #76]	; 0x4c
 8000c5c:	f002 0201 	and.w	r2, r2, #1
 8000c60:	9201      	str	r2, [sp, #4]
 8000c62:	9a01      	ldr	r2, [sp, #4]
 8000c64:	6cda      	ldr	r2, [r3, #76]	; 0x4c
 8000c66:	f042 0202 	orr.w	r2, r2, #2
 8000c6a:	64da      	str	r2, [r3, #76]	; 0x4c
 8000c6c:	6cdb      	ldr	r3, [r3, #76]	; 0x4c
 8000c6e:	f003 0302 	and.w	r3, r3, #2
 8000c72:	9302      	str	r3, [sp, #8]
 8000c74:	9b02      	ldr	r3, [sp, #8]
 8000c76:	2401      	movs	r4, #1
 8000c78:	f44f 63f0 	mov.w	r3, #1920	; 0x780
 8000c7c:	a903      	add	r1, sp, #12
 8000c7e:	f04f 4090 	mov.w	r0, #1207959552	; 0x48000000
 8000c82:	e9cd 3503 	strd	r3, r5, [sp, #12]
 8000c86:	9407      	str	r4, [sp, #28]
 8000c88:	f000 f93e 	bl	8000f08 <HAL_GPIO_Init>
 8000c8c:	2303      	movs	r3, #3
 8000c8e:	e9cd 3503 	strd	r3, r5, [sp, #12]
 8000c92:	a903      	add	r1, sp, #12
 8000c94:	2300      	movs	r3, #0
 8000c96:	4805      	ldr	r0, [pc, #20]	; (8000cac <HAL_TIM_MspPostInit+0x78>)
 8000c98:	9407      	str	r4, [sp, #28]
 8000c9a:	e9cd 3305 	strd	r3, r3, [sp, #20]
 8000c9e:	f000 f933 	bl	8000f08 <HAL_GPIO_Init>
 8000ca2:	b009      	add	sp, #36	; 0x24
 8000ca4:	bd30      	pop	{r4, r5, pc}
 8000ca6:	bf00      	nop
 8000ca8:	40012c00 	.word	0x40012c00
 8000cac:	48000400 	.word	0x48000400

08000cb0 <NMI_Handler>:
 8000cb0:	4770      	bx	lr

08000cb2 <HardFault_Handler>:
 8000cb2:	e7fe      	b.n	8000cb2 <HardFault_Handler>

08000cb4 <MemManage_Handler>:
 8000cb4:	e7fe      	b.n	8000cb4 <MemManage_Handler>

08000cb6 <BusFault_Handler>:
 8000cb6:	e7fe      	b.n	8000cb6 <BusFault_Handler>

08000cb8 <UsageFault_Handler>:
 8000cb8:	e7fe      	b.n	8000cb8 <UsageFault_Handler>

08000cba <SVC_Handler>:
 8000cba:	4770      	bx	lr

08000cbc <DebugMon_Handler>:
 8000cbc:	4770      	bx	lr

08000cbe <PendSV_Handler>:
 8000cbe:	4770      	bx	lr

08000cc0 <SysTick_Handler>:
 8000cc0:	f000 b892 	b.w	8000de8 <HAL_IncTick>

08000cc4 <TIM1_BRK_TIM15_IRQHandler>:
 8000cc4:	b508      	push	{r3, lr}
 8000cc6:	4804      	ldr	r0, [pc, #16]	; (8000cd8 <TIM1_BRK_TIM15_IRQHandler+0x14>)
 8000cc8:	f000 ff0b 	bl	8001ae2 <HAL_TIM_IRQHandler>
 8000ccc:	4803      	ldr	r0, [pc, #12]	; (8000cdc <TIM1_BRK_TIM15_IRQHandler+0x18>)
 8000cce:	e8bd 4008 	ldmia.w	sp!, {r3, lr}
 8000cd2:	f000 bf06 	b.w	8001ae2 <HAL_TIM_IRQHandler>
 8000cd6:	bf00      	nop
 8000cd8:	200000c0 	.word	0x200000c0
 8000cdc:	20000030 	.word	0x20000030

08000ce0 <SystemInit>:
 8000ce0:	490f      	ldr	r1, [pc, #60]	; (8000d20 <SystemInit+0x40>)
 8000ce2:	f8d1 3088 	ldr.w	r3, [r1, #136]	; 0x88
 8000ce6:	f443 0370 	orr.w	r3, r3, #15728640	; 0xf00000
 8000cea:	f8c1 3088 	str.w	r3, [r1, #136]	; 0x88
 8000cee:	4b0d      	ldr	r3, [pc, #52]	; (8000d24 <SystemInit+0x44>)
 8000cf0:	681a      	ldr	r2, [r3, #0]
 8000cf2:	2000      	movs	r0, #0
 8000cf4:	f042 0201 	orr.w	r2, r2, #1
 8000cf8:	601a      	str	r2, [r3, #0]
 8000cfa:	6098      	str	r0, [r3, #8]
 8000cfc:	681a      	ldr	r2, [r3, #0]
 8000cfe:	f022 52a8 	bic.w	r2, r2, #352321536	; 0x15000000
 8000d02:	f422 2210 	bic.w	r2, r2, #589824	; 0x90000
 8000d06:	601a      	str	r2, [r3, #0]
 8000d08:	f44f 5280 	mov.w	r2, #4096	; 0x1000
 8000d0c:	60da      	str	r2, [r3, #12]
 8000d0e:	681a      	ldr	r2, [r3, #0]
 8000d10:	f422 2280 	bic.w	r2, r2, #262144	; 0x40000
 8000d14:	601a      	str	r2, [r3, #0]
 8000d16:	6198      	str	r0, [r3, #24]
 8000d18:	f04f 6300 	mov.w	r3, #134217728	; 0x8000000
 8000d1c:	608b      	str	r3, [r1, #8]
 8000d1e:	4770      	bx	lr
 8000d20:	e000ed00 	.word	0xe000ed00
 8000d24:	40021000 	.word	0x40021000

08000d28 <Reset_Handler>:
 8000d28:	f8df d034 	ldr.w	sp, [pc, #52]	; 8000d60 <LoopForever+0x2>
 8000d2c:	f7ff ffd8 	bl	8000ce0 <SystemInit>
 8000d30:	2100      	movs	r1, #0
 8000d32:	e003      	b.n	8000d3c <LoopCopyDataInit>

08000d34 <CopyDataInit>:
 8000d34:	4b0b      	ldr	r3, [pc, #44]	; (8000d64 <LoopForever+0x6>)
 8000d36:	585b      	ldr	r3, [r3, r1]
 8000d38:	5043      	str	r3, [r0, r1]
 8000d3a:	3104      	adds	r1, #4

08000d3c <LoopCopyDataInit>:
 8000d3c:	480a      	ldr	r0, [pc, #40]	; (8000d68 <LoopForever+0xa>)
 8000d3e:	4b0b      	ldr	r3, [pc, #44]	; (8000d6c <LoopForever+0xe>)
 8000d40:	1842      	adds	r2, r0, r1
 8000d42:	429a      	cmp	r2, r3
 8000d44:	d3f6      	bcc.n	8000d34 <CopyDataInit>
 8000d46:	4a0a      	ldr	r2, [pc, #40]	; (8000d70 <LoopForever+0x12>)
 8000d48:	e002      	b.n	8000d50 <LoopFillZerobss>

08000d4a <FillZerobss>:
 8000d4a:	2300      	movs	r3, #0
 8000d4c:	f842 3b04 	str.w	r3, [r2], #4

08000d50 <LoopFillZerobss>:
 8000d50:	4b08      	ldr	r3, [pc, #32]	; (8000d74 <LoopForever+0x16>)
 8000d52:	429a      	cmp	r2, r3
 8000d54:	d3f9      	bcc.n	8000d4a <FillZerobss>
 8000d56:	f001 fb37 	bl	80023c8 <__libc_init_array>
 8000d5a:	f7ff fde1 	bl	8000920 <main>

08000d5e <LoopForever>:
 8000d5e:	e7fe      	b.n	8000d5e <LoopForever>
 8000d60:	20010000 	.word	0x20010000
 8000d64:	080032e8 	.word	0x080032e8
 8000d68:	20000000 	.word	0x20000000
 8000d6c:	2000000c 	.word	0x2000000c
 8000d70:	2000000c 	.word	0x2000000c
 8000d74:	2000014c 	.word	0x2000014c

08000d78 <ADC1_IRQHandler>:
 8000d78:	e7fe      	b.n	8000d78 <ADC1_IRQHandler>
	...

08000d7c <HAL_InitTick>:
 8000d7c:	b538      	push	{r3, r4, r5, lr}
 8000d7e:	4b0f      	ldr	r3, [pc, #60]	; (8000dbc <HAL_InitTick+0x40>)
 8000d80:	4605      	mov	r5, r0
 8000d82:	7818      	ldrb	r0, [r3, #0]
 8000d84:	b908      	cbnz	r0, 8000d8a <HAL_InitTick+0xe>
 8000d86:	2001      	movs	r0, #1
 8000d88:	bd38      	pop	{r3, r4, r5, pc}
 8000d8a:	4a0d      	ldr	r2, [pc, #52]	; (8000dc0 <HAL_InitTick+0x44>)
 8000d8c:	f44f 737a 	mov.w	r3, #1000	; 0x3e8
 8000d90:	fbb3 f3f0 	udiv	r3, r3, r0
 8000d94:	6810      	ldr	r0, [r2, #0]
 8000d96:	fbb0 f0f3 	udiv	r0, r0, r3
 8000d9a:	f000 f89f 	bl	8000edc <HAL_SYSTICK_Config>
 8000d9e:	4604      	mov	r4, r0
 8000da0:	2800      	cmp	r0, #0
 8000da2:	d1f0      	bne.n	8000d86 <HAL_InitTick+0xa>
 8000da4:	2d0f      	cmp	r5, #15
 8000da6:	d8ee      	bhi.n	8000d86 <HAL_InitTick+0xa>
 8000da8:	4602      	mov	r2, r0
 8000daa:	4629      	mov	r1, r5
 8000dac:	f04f 30ff 	mov.w	r0, #4294967295
 8000db0:	f000 f852 	bl	8000e58 <HAL_NVIC_SetPriority>
 8000db4:	4b03      	ldr	r3, [pc, #12]	; (8000dc4 <HAL_InitTick+0x48>)
 8000db6:	4620      	mov	r0, r4
 8000db8:	601d      	str	r5, [r3, #0]
 8000dba:	e7e5      	b.n	8000d88 <HAL_InitTick+0xc>
 8000dbc:	20000004 	.word	0x20000004
 8000dc0:	20000000 	.word	0x20000000
 8000dc4:	20000008 	.word	0x20000008

08000dc8 <HAL_Init>:
 8000dc8:	b510      	push	{r4, lr}
 8000dca:	2003      	movs	r0, #3
 8000dcc:	f000 f832 	bl	8000e34 <HAL_NVIC_SetPriorityGrouping>
 8000dd0:	2000      	movs	r0, #0
 8000dd2:	f7ff ffd3 	bl	8000d7c <HAL_InitTick>
 8000dd6:	4604      	mov	r4, r0
 8000dd8:	b918      	cbnz	r0, 8000de2 <HAL_Init+0x1a>
 8000dda:	f7ff fee1 	bl	8000ba0 <HAL_MspInit>
 8000dde:	4620      	mov	r0, r4
 8000de0:	bd10      	pop	{r4, pc}
 8000de2:	2401      	movs	r4, #1
 8000de4:	e7fb      	b.n	8000dde <HAL_Init+0x16>
	...

08000de8 <HAL_IncTick>:
 8000de8:	4a03      	ldr	r2, [pc, #12]	; (8000df8 <HAL_IncTick+0x10>)
 8000dea:	4b04      	ldr	r3, [pc, #16]	; (8000dfc <HAL_IncTick+0x14>)
 8000dec:	6811      	ldr	r1, [r2, #0]
 8000dee:	781b      	ldrb	r3, [r3, #0]
 8000df0:	440b      	add	r3, r1
 8000df2:	6013      	str	r3, [r2, #0]
 8000df4:	4770      	bx	lr
 8000df6:	bf00      	nop
 8000df8:	20000148 	.word	0x20000148
 8000dfc:	20000004 	.word	0x20000004

08000e00 <HAL_GetTick>:
 8000e00:	4b01      	ldr	r3, [pc, #4]	; (8000e08 <HAL_GetTick+0x8>)
 8000e02:	6818      	ldr	r0, [r3, #0]
 8000e04:	4770      	bx	lr
 8000e06:	bf00      	nop
 8000e08:	20000148 	.word	0x20000148

08000e0c <HAL_Delay>:
 8000e0c:	b538      	push	{r3, r4, r5, lr}
 8000e0e:	4604      	mov	r4, r0
 8000e10:	f7ff fff6 	bl	8000e00 <HAL_GetTick>
 8000e14:	1c63      	adds	r3, r4, #1
 8000e16:	bf1c      	itt	ne
 8000e18:	4b05      	ldrne	r3, [pc, #20]	; (8000e30 <HAL_Delay+0x24>)
 8000e1a:	781b      	ldrbne	r3, [r3, #0]
 8000e1c:	4605      	mov	r5, r0
 8000e1e:	bf18      	it	ne
 8000e20:	18e4      	addne	r4, r4, r3
 8000e22:	f7ff ffed 	bl	8000e00 <HAL_GetTick>
 8000e26:	1b40      	subs	r0, r0, r5
 8000e28:	42a0      	cmp	r0, r4
 8000e2a:	d3fa      	bcc.n	8000e22 <HAL_Delay+0x16>
 8000e2c:	bd38      	pop	{r3, r4, r5, pc}
 8000e2e:	bf00      	nop
 8000e30:	20000004 	.word	0x20000004

08000e34 <HAL_NVIC_SetPriorityGrouping>:
 8000e34:	4a07      	ldr	r2, [pc, #28]	; (8000e54 <HAL_NVIC_SetPriorityGrouping+0x20>)
 8000e36:	68d3      	ldr	r3, [r2, #12]
 8000e38:	f423 63e0 	bic.w	r3, r3, #1792	; 0x700
 8000e3c:	041b      	lsls	r3, r3, #16
 8000e3e:	0c1b      	lsrs	r3, r3, #16
 8000e40:	f043 63bf 	orr.w	r3, r3, #100139008	; 0x5f80000
 8000e44:	0200      	lsls	r0, r0, #8
 8000e46:	f443 3300 	orr.w	r3, r3, #131072	; 0x20000
 8000e4a:	f400 60e0 	and.w	r0, r0, #1792	; 0x700
 8000e4e:	4303      	orrs	r3, r0
 8000e50:	60d3      	str	r3, [r2, #12]
 8000e52:	4770      	bx	lr
 8000e54:	e000ed00 	.word	0xe000ed00

08000e58 <HAL_NVIC_SetPriority>:
 8000e58:	4b17      	ldr	r3, [pc, #92]	; (8000eb8 <HAL_NVIC_SetPriority+0x60>)
 8000e5a:	b570      	push	{r4, r5, r6, lr}
 8000e5c:	68dc      	ldr	r4, [r3, #12]
 8000e5e:	f3c4 2402 	ubfx	r4, r4, #8, #3
 8000e62:	f1c4 0507 	rsb	r5, r4, #7
 8000e66:	2d04      	cmp	r5, #4
 8000e68:	f104 0304 	add.w	r3, r4, #4
 8000e6c:	bf28      	it	cs
 8000e6e:	2504      	movcs	r5, #4
 8000e70:	f04f 36ff 	mov.w	r6, #4294967295
 8000e74:	2b06      	cmp	r3, #6
 8000e76:	fa06 f305 	lsl.w	r3, r6, r5
 8000e7a:	bf8c      	ite	hi
 8000e7c:	3c03      	subhi	r4, #3
 8000e7e:	2400      	movls	r4, #0
 8000e80:	ea21 0303 	bic.w	r3, r1, r3
 8000e84:	40a3      	lsls	r3, r4
 8000e86:	fa06 f404 	lsl.w	r4, r6, r4
 8000e8a:	ea22 0404 	bic.w	r4, r2, r4
 8000e8e:	2800      	cmp	r0, #0
 8000e90:	ea43 0304 	orr.w	r3, r3, r4
 8000e94:	bfa8      	it	ge
 8000e96:	f100 4060 	addge.w	r0, r0, #3758096384	; 0xe0000000
 8000e9a:	ea4f 1303 	mov.w	r3, r3, lsl #4
 8000e9e:	bfbc      	itt	lt
 8000ea0:	f000 000f 	andlt.w	r0, r0, #15
 8000ea4:	4a05      	ldrlt	r2, [pc, #20]	; (8000ebc <HAL_NVIC_SetPriority+0x64>)
 8000ea6:	b2db      	uxtb	r3, r3
 8000ea8:	bfaa      	itet	ge
 8000eaa:	f500 4061 	addge.w	r0, r0, #57600	; 0xe100
 8000eae:	5413      	strblt	r3, [r2, r0]
 8000eb0:	f880 3300 	strbge.w	r3, [r0, #768]	; 0x300
 8000eb4:	bd70      	pop	{r4, r5, r6, pc}
 8000eb6:	bf00      	nop
 8000eb8:	e000ed00 	.word	0xe000ed00
 8000ebc:	e000ed14 	.word	0xe000ed14

08000ec0 <HAL_NVIC_EnableIRQ>:
 8000ec0:	2800      	cmp	r0, #0
 8000ec2:	db08      	blt.n	8000ed6 <HAL_NVIC_EnableIRQ+0x16>
 8000ec4:	2301      	movs	r3, #1
 8000ec6:	0942      	lsrs	r2, r0, #5
 8000ec8:	f000 001f 	and.w	r0, r0, #31
 8000ecc:	fa03 f000 	lsl.w	r0, r3, r0
 8000ed0:	4b01      	ldr	r3, [pc, #4]	; (8000ed8 <HAL_NVIC_EnableIRQ+0x18>)
 8000ed2:	f843 0022 	str.w	r0, [r3, r2, lsl #2]
 8000ed6:	4770      	bx	lr
 8000ed8:	e000e100 	.word	0xe000e100

08000edc <HAL_SYSTICK_Config>:
 8000edc:	3801      	subs	r0, #1
 8000ede:	f1b0 7f80 	cmp.w	r0, #16777216	; 0x1000000
 8000ee2:	d20a      	bcs.n	8000efa <HAL_SYSTICK_Config+0x1e>
 8000ee4:	4b06      	ldr	r3, [pc, #24]	; (8000f00 <HAL_SYSTICK_Config+0x24>)
 8000ee6:	4a07      	ldr	r2, [pc, #28]	; (8000f04 <HAL_SYSTICK_Config+0x28>)
 8000ee8:	6058      	str	r0, [r3, #4]
 8000eea:	21f0      	movs	r1, #240	; 0xf0
 8000eec:	f882 1023 	strb.w	r1, [r2, #35]	; 0x23
 8000ef0:	2000      	movs	r0, #0
 8000ef2:	2207      	movs	r2, #7
 8000ef4:	6098      	str	r0, [r3, #8]
 8000ef6:	601a      	str	r2, [r3, #0]
 8000ef8:	4770      	bx	lr
 8000efa:	2001      	movs	r0, #1
 8000efc:	4770      	bx	lr
 8000efe:	bf00      	nop
 8000f00:	e000e010 	.word	0xe000e010
 8000f04:	e000ed00 	.word	0xe000ed00

08000f08 <HAL_GPIO_Init>:
 8000f08:	e92d 4ff0 	stmdb	sp!, {r4, r5, r6, r7, r8, r9, sl, fp, lr}
 8000f0c:	b085      	sub	sp, #20
 8000f0e:	680b      	ldr	r3, [r1, #0]
 8000f10:	f8df e164 	ldr.w	lr, [pc, #356]	; 8001078 <HAL_GPIO_Init+0x170>
 8000f14:	4a56      	ldr	r2, [pc, #344]	; (8001070 <HAL_GPIO_Init+0x168>)
 8000f16:	9301      	str	r3, [sp, #4]
 8000f18:	f04f 090f 	mov.w	r9, #15
 8000f1c:	2300      	movs	r3, #0
 8000f1e:	9c01      	ldr	r4, [sp, #4]
 8000f20:	40dc      	lsrs	r4, r3
 8000f22:	d102      	bne.n	8000f2a <HAL_GPIO_Init+0x22>
 8000f24:	b005      	add	sp, #20
 8000f26:	e8bd 8ff0 	ldmia.w	sp!, {r4, r5, r6, r7, r8, r9, sl, fp, pc}
 8000f2a:	2401      	movs	r4, #1
 8000f2c:	fa04 f803 	lsl.w	r8, r4, r3
 8000f30:	9c01      	ldr	r4, [sp, #4]
 8000f32:	ea18 0504 	ands.w	r5, r8, r4
 8000f36:	f000 8094 	beq.w	8001062 <HAL_GPIO_Init+0x15a>
 8000f3a:	684c      	ldr	r4, [r1, #4]
 8000f3c:	f024 0a10 	bic.w	sl, r4, #16
 8000f40:	ea4f 0c43 	mov.w	ip, r3, lsl #1
 8000f44:	2603      	movs	r6, #3
 8000f46:	f10a 37ff 	add.w	r7, sl, #4294967295
 8000f4a:	fa06 f60c 	lsl.w	r6, r6, ip
 8000f4e:	2f01      	cmp	r7, #1
 8000f50:	ea6f 0606 	mvn.w	r6, r6
 8000f54:	d811      	bhi.n	8000f7a <HAL_GPIO_Init+0x72>
 8000f56:	6887      	ldr	r7, [r0, #8]
 8000f58:	ea07 0b06 	and.w	fp, r7, r6
 8000f5c:	68cf      	ldr	r7, [r1, #12]
 8000f5e:	fa07 f70c 	lsl.w	r7, r7, ip
 8000f62:	ea47 070b 	orr.w	r7, r7, fp
 8000f66:	6087      	str	r7, [r0, #8]
 8000f68:	6847      	ldr	r7, [r0, #4]
 8000f6a:	ea27 0808 	bic.w	r8, r7, r8
 8000f6e:	f3c4 1700 	ubfx	r7, r4, #4, #1
 8000f72:	409f      	lsls	r7, r3
 8000f74:	ea47 0708 	orr.w	r7, r7, r8
 8000f78:	6047      	str	r7, [r0, #4]
 8000f7a:	68c7      	ldr	r7, [r0, #12]
 8000f7c:	ea07 0806 	and.w	r8, r7, r6
 8000f80:	688f      	ldr	r7, [r1, #8]
 8000f82:	fa07 f70c 	lsl.w	r7, r7, ip
 8000f86:	ea47 0708 	orr.w	r7, r7, r8
 8000f8a:	f1ba 0f02 	cmp.w	sl, #2
 8000f8e:	60c7      	str	r7, [r0, #12]
 8000f90:	d114      	bne.n	8000fbc <HAL_GPIO_Init+0xb4>
 8000f92:	ea4f 08d3 	mov.w	r8, r3, lsr #3
 8000f96:	eb00 0888 	add.w	r8, r0, r8, lsl #2
 8000f9a:	f003 0a07 	and.w	sl, r3, #7
 8000f9e:	f8d8 7020 	ldr.w	r7, [r8, #32]
 8000fa2:	ea4f 0a8a 	mov.w	sl, sl, lsl #2
 8000fa6:	fa09 fb0a 	lsl.w	fp, r9, sl
 8000faa:	ea27 0b0b 	bic.w	fp, r7, fp
 8000fae:	690f      	ldr	r7, [r1, #16]
 8000fb0:	fa07 f70a 	lsl.w	r7, r7, sl
 8000fb4:	ea47 070b 	orr.w	r7, r7, fp
 8000fb8:	f8c8 7020 	str.w	r7, [r8, #32]
 8000fbc:	6807      	ldr	r7, [r0, #0]
 8000fbe:	403e      	ands	r6, r7
 8000fc0:	f004 0703 	and.w	r7, r4, #3
 8000fc4:	fa07 fc0c 	lsl.w	ip, r7, ip
 8000fc8:	ea4c 0606 	orr.w	r6, ip, r6
 8000fcc:	6006      	str	r6, [r0, #0]
 8000fce:	00e6      	lsls	r6, r4, #3
 8000fd0:	d547      	bpl.n	8001062 <HAL_GPIO_Init+0x15a>
 8000fd2:	f8de 6060 	ldr.w	r6, [lr, #96]	; 0x60
 8000fd6:	f046 0601 	orr.w	r6, r6, #1
 8000fda:	f8ce 6060 	str.w	r6, [lr, #96]	; 0x60
 8000fde:	f8de 6060 	ldr.w	r6, [lr, #96]	; 0x60
 8000fe2:	f023 0703 	bic.w	r7, r3, #3
 8000fe6:	f107 4780 	add.w	r7, r7, #1073741824	; 0x40000000
 8000fea:	f006 0601 	and.w	r6, r6, #1
 8000fee:	f507 3780 	add.w	r7, r7, #65536	; 0x10000
 8000ff2:	9603      	str	r6, [sp, #12]
 8000ff4:	f003 0c03 	and.w	ip, r3, #3
 8000ff8:	9e03      	ldr	r6, [sp, #12]
 8000ffa:	68be      	ldr	r6, [r7, #8]
 8000ffc:	ea4f 0c8c 	mov.w	ip, ip, lsl #2
 8001000:	fa09 f80c 	lsl.w	r8, r9, ip
 8001004:	f1b0 4f90 	cmp.w	r0, #1207959552	; 0x48000000
 8001008:	ea26 0808 	bic.w	r8, r6, r8
 800100c:	d02b      	beq.n	8001066 <HAL_GPIO_Init+0x15e>
 800100e:	4e19      	ldr	r6, [pc, #100]	; (8001074 <HAL_GPIO_Init+0x16c>)
 8001010:	42b0      	cmp	r0, r6
 8001012:	d02a      	beq.n	800106a <HAL_GPIO_Init+0x162>
 8001014:	f506 6680 	add.w	r6, r6, #1024	; 0x400
 8001018:	42b0      	cmp	r0, r6
 800101a:	bf14      	ite	ne
 800101c:	2607      	movne	r6, #7
 800101e:	2602      	moveq	r6, #2
 8001020:	fa06 f60c 	lsl.w	r6, r6, ip
 8001024:	ea46 0608 	orr.w	r6, r6, r8
 8001028:	60be      	str	r6, [r7, #8]
 800102a:	6816      	ldr	r6, [r2, #0]
 800102c:	43ef      	mvns	r7, r5
 800102e:	f414 3f80 	tst.w	r4, #65536	; 0x10000
 8001032:	bf0c      	ite	eq
 8001034:	403e      	andeq	r6, r7
 8001036:	432e      	orrne	r6, r5
 8001038:	6016      	str	r6, [r2, #0]
 800103a:	6856      	ldr	r6, [r2, #4]
 800103c:	f414 3f00 	tst.w	r4, #131072	; 0x20000
 8001040:	bf0c      	ite	eq
 8001042:	403e      	andeq	r6, r7
 8001044:	432e      	orrne	r6, r5
 8001046:	6056      	str	r6, [r2, #4]
 8001048:	6896      	ldr	r6, [r2, #8]
 800104a:	f414 1f80 	tst.w	r4, #1048576	; 0x100000
 800104e:	bf0c      	ite	eq
 8001050:	403e      	andeq	r6, r7
 8001052:	432e      	orrne	r6, r5
 8001054:	6096      	str	r6, [r2, #8]
 8001056:	68d6      	ldr	r6, [r2, #12]
 8001058:	02a4      	lsls	r4, r4, #10
 800105a:	bf54      	ite	pl
 800105c:	403e      	andpl	r6, r7
 800105e:	432e      	orrmi	r6, r5
 8001060:	60d6      	str	r6, [r2, #12]
 8001062:	3301      	adds	r3, #1
 8001064:	e75b      	b.n	8000f1e <HAL_GPIO_Init+0x16>
 8001066:	2600      	movs	r6, #0
 8001068:	e7da      	b.n	8001020 <HAL_GPIO_Init+0x118>
 800106a:	2601      	movs	r6, #1
 800106c:	e7d8      	b.n	8001020 <HAL_GPIO_Init+0x118>
 800106e:	bf00      	nop
 8001070:	40010400 	.word	0x40010400
 8001074:	48000400 	.word	0x48000400
 8001078:	40021000 	.word	0x40021000

0800107c <HAL_PWREx_GetVoltageRange>:
 800107c:	4b02      	ldr	r3, [pc, #8]	; (8001088 <HAL_PWREx_GetVoltageRange+0xc>)
 800107e:	6818      	ldr	r0, [r3, #0]
 8001080:	f400 60c0 	and.w	r0, r0, #1536	; 0x600
 8001084:	4770      	bx	lr
 8001086:	bf00      	nop
 8001088:	40007000 	.word	0x40007000

0800108c <HAL_PWREx_ControlVoltageScaling>:
 800108c:	4b17      	ldr	r3, [pc, #92]	; (80010ec <HAL_PWREx_ControlVoltageScaling+0x60>)
 800108e:	681a      	ldr	r2, [r3, #0]
 8001090:	f5b0 7f00 	cmp.w	r0, #512	; 0x200
 8001094:	f402 62c0 	and.w	r2, r2, #1536	; 0x600
 8001098:	d11c      	bne.n	80010d4 <HAL_PWREx_ControlVoltageScaling+0x48>
 800109a:	f5b2 7f00 	cmp.w	r2, #512	; 0x200
 800109e:	d015      	beq.n	80010cc <HAL_PWREx_ControlVoltageScaling+0x40>
 80010a0:	681a      	ldr	r2, [r3, #0]
 80010a2:	f422 62c0 	bic.w	r2, r2, #1536	; 0x600
 80010a6:	f442 7200 	orr.w	r2, r2, #512	; 0x200
 80010aa:	601a      	str	r2, [r3, #0]
 80010ac:	4a10      	ldr	r2, [pc, #64]	; (80010f0 <HAL_PWREx_ControlVoltageScaling+0x64>)
 80010ae:	6811      	ldr	r1, [r2, #0]
 80010b0:	2232      	movs	r2, #50	; 0x32
 80010b2:	434a      	muls	r2, r1
 80010b4:	490f      	ldr	r1, [pc, #60]	; (80010f4 <HAL_PWREx_ControlVoltageScaling+0x68>)
 80010b6:	fbb2 f2f1 	udiv	r2, r2, r1
 80010ba:	4619      	mov	r1, r3
 80010bc:	3201      	adds	r2, #1
 80010be:	6958      	ldr	r0, [r3, #20]
 80010c0:	0540      	lsls	r0, r0, #21
 80010c2:	d500      	bpl.n	80010c6 <HAL_PWREx_ControlVoltageScaling+0x3a>
 80010c4:	b922      	cbnz	r2, 80010d0 <HAL_PWREx_ControlVoltageScaling+0x44>
 80010c6:	694b      	ldr	r3, [r1, #20]
 80010c8:	055b      	lsls	r3, r3, #21
 80010ca:	d40d      	bmi.n	80010e8 <HAL_PWREx_ControlVoltageScaling+0x5c>
 80010cc:	2000      	movs	r0, #0
 80010ce:	4770      	bx	lr
 80010d0:	3a01      	subs	r2, #1
 80010d2:	e7f4      	b.n	80010be <HAL_PWREx_ControlVoltageScaling+0x32>
 80010d4:	f5b2 6f80 	cmp.w	r2, #1024	; 0x400
 80010d8:	bf1f      	itttt	ne
 80010da:	681a      	ldrne	r2, [r3, #0]
 80010dc:	f422 62c0 	bicne.w	r2, r2, #1536	; 0x600
 80010e0:	f442 6280 	orrne.w	r2, r2, #1024	; 0x400
 80010e4:	601a      	strne	r2, [r3, #0]
 80010e6:	e7f1      	b.n	80010cc <HAL_PWREx_ControlVoltageScaling+0x40>
 80010e8:	2003      	movs	r0, #3
 80010ea:	4770      	bx	lr
 80010ec:	40007000 	.word	0x40007000
 80010f0:	20000000 	.word	0x20000000
 80010f4:	000f4240 	.word	0x000f4240

080010f8 <RCC_SetFlashLatencyFromMSIRange>:
 80010f8:	b537      	push	{r0, r1, r2, r4, r5, lr}
 80010fa:	4d1e      	ldr	r5, [pc, #120]	; (8001174 <RCC_SetFlashLatencyFromMSIRange+0x7c>)
 80010fc:	6dab      	ldr	r3, [r5, #88]	; 0x58
 80010fe:	00da      	lsls	r2, r3, #3
 8001100:	4604      	mov	r4, r0
 8001102:	d518      	bpl.n	8001136 <RCC_SetFlashLatencyFromMSIRange+0x3e>
 8001104:	f7ff ffba 	bl	800107c <HAL_PWREx_GetVoltageRange>
 8001108:	f5b0 7f00 	cmp.w	r0, #512	; 0x200
 800110c:	d123      	bne.n	8001156 <RCC_SetFlashLatencyFromMSIRange+0x5e>
 800110e:	2c80      	cmp	r4, #128	; 0x80
 8001110:	d929      	bls.n	8001166 <RCC_SetFlashLatencyFromMSIRange+0x6e>
 8001112:	2ca0      	cmp	r4, #160	; 0xa0
 8001114:	bf8c      	ite	hi
 8001116:	2002      	movhi	r0, #2
 8001118:	2001      	movls	r0, #1
 800111a:	4a17      	ldr	r2, [pc, #92]	; (8001178 <RCC_SetFlashLatencyFromMSIRange+0x80>)
 800111c:	6813      	ldr	r3, [r2, #0]
 800111e:	f023 0307 	bic.w	r3, r3, #7
 8001122:	4303      	orrs	r3, r0
 8001124:	6013      	str	r3, [r2, #0]
 8001126:	6813      	ldr	r3, [r2, #0]
 8001128:	f003 0307 	and.w	r3, r3, #7
 800112c:	1a18      	subs	r0, r3, r0
 800112e:	bf18      	it	ne
 8001130:	2001      	movne	r0, #1
 8001132:	b003      	add	sp, #12
 8001134:	bd30      	pop	{r4, r5, pc}
 8001136:	6dab      	ldr	r3, [r5, #88]	; 0x58
 8001138:	f043 5380 	orr.w	r3, r3, #268435456	; 0x10000000
 800113c:	65ab      	str	r3, [r5, #88]	; 0x58
 800113e:	6dab      	ldr	r3, [r5, #88]	; 0x58
 8001140:	f003 5380 	and.w	r3, r3, #268435456	; 0x10000000
 8001144:	9301      	str	r3, [sp, #4]
 8001146:	9b01      	ldr	r3, [sp, #4]
 8001148:	f7ff ff98 	bl	800107c <HAL_PWREx_GetVoltageRange>
 800114c:	6dab      	ldr	r3, [r5, #88]	; 0x58
 800114e:	f023 5380 	bic.w	r3, r3, #268435456	; 0x10000000
 8001152:	65ab      	str	r3, [r5, #88]	; 0x58
 8001154:	e7d8      	b.n	8001108 <RCC_SetFlashLatencyFromMSIRange+0x10>
 8001156:	2c80      	cmp	r4, #128	; 0x80
 8001158:	d807      	bhi.n	800116a <RCC_SetFlashLatencyFromMSIRange+0x72>
 800115a:	d008      	beq.n	800116e <RCC_SetFlashLatencyFromMSIRange+0x76>
 800115c:	f1a4 0370 	sub.w	r3, r4, #112	; 0x70
 8001160:	4258      	negs	r0, r3
 8001162:	4158      	adcs	r0, r3
 8001164:	e7d9      	b.n	800111a <RCC_SetFlashLatencyFromMSIRange+0x22>
 8001166:	2000      	movs	r0, #0
 8001168:	e7d7      	b.n	800111a <RCC_SetFlashLatencyFromMSIRange+0x22>
 800116a:	2003      	movs	r0, #3
 800116c:	e7d5      	b.n	800111a <RCC_SetFlashLatencyFromMSIRange+0x22>
 800116e:	2002      	movs	r0, #2
 8001170:	e7d3      	b.n	800111a <RCC_SetFlashLatencyFromMSIRange+0x22>
 8001172:	bf00      	nop
 8001174:	40021000 	.word	0x40021000
 8001178:	40022000 	.word	0x40022000

0800117c <HAL_RCC_GetSysClockFreq>:
 800117c:	4b22      	ldr	r3, [pc, #136]	; (8001208 <HAL_RCC_GetSysClockFreq+0x8c>)
 800117e:	689a      	ldr	r2, [r3, #8]
 8001180:	68d9      	ldr	r1, [r3, #12]
 8001182:	f012 020c 	ands.w	r2, r2, #12
 8001186:	d005      	beq.n	8001194 <HAL_RCC_GetSysClockFreq+0x18>
 8001188:	2a0c      	cmp	r2, #12
 800118a:	d115      	bne.n	80011b8 <HAL_RCC_GetSysClockFreq+0x3c>
 800118c:	f001 0103 	and.w	r1, r1, #3
 8001190:	2901      	cmp	r1, #1
 8001192:	d118      	bne.n	80011c6 <HAL_RCC_GetSysClockFreq+0x4a>
 8001194:	6819      	ldr	r1, [r3, #0]
 8001196:	481d      	ldr	r0, [pc, #116]	; (800120c <HAL_RCC_GetSysClockFreq+0x90>)
 8001198:	0709      	lsls	r1, r1, #28
 800119a:	bf55      	itete	pl
 800119c:	f8d3 1094 	ldrpl.w	r1, [r3, #148]	; 0x94
 80011a0:	6819      	ldrmi	r1, [r3, #0]
 80011a2:	f3c1 2103 	ubfxpl	r1, r1, #8, #4
 80011a6:	f3c1 1103 	ubfxmi	r1, r1, #4, #4
 80011aa:	f850 0021 	ldr.w	r0, [r0, r1, lsl #2]
 80011ae:	b34a      	cbz	r2, 8001204 <HAL_RCC_GetSysClockFreq+0x88>
 80011b0:	2a0c      	cmp	r2, #12
 80011b2:	d009      	beq.n	80011c8 <HAL_RCC_GetSysClockFreq+0x4c>
 80011b4:	2000      	movs	r0, #0
 80011b6:	4770      	bx	lr
 80011b8:	2a04      	cmp	r2, #4
 80011ba:	d022      	beq.n	8001202 <HAL_RCC_GetSysClockFreq+0x86>
 80011bc:	2a08      	cmp	r2, #8
 80011be:	4814      	ldr	r0, [pc, #80]	; (8001210 <HAL_RCC_GetSysClockFreq+0x94>)
 80011c0:	bf18      	it	ne
 80011c2:	2000      	movne	r0, #0
 80011c4:	4770      	bx	lr
 80011c6:	2000      	movs	r0, #0
 80011c8:	68da      	ldr	r2, [r3, #12]
 80011ca:	f002 0203 	and.w	r2, r2, #3
 80011ce:	2a02      	cmp	r2, #2
 80011d0:	d015      	beq.n	80011fe <HAL_RCC_GetSysClockFreq+0x82>
 80011d2:	490f      	ldr	r1, [pc, #60]	; (8001210 <HAL_RCC_GetSysClockFreq+0x94>)
 80011d4:	2a03      	cmp	r2, #3
 80011d6:	bf08      	it	eq
 80011d8:	4608      	moveq	r0, r1
 80011da:	68da      	ldr	r2, [r3, #12]
 80011dc:	68d9      	ldr	r1, [r3, #12]
 80011de:	68db      	ldr	r3, [r3, #12]
 80011e0:	f3c3 6341 	ubfx	r3, r3, #25, #2
 80011e4:	f3c1 2106 	ubfx	r1, r1, #8, #7
 80011e8:	f3c2 1202 	ubfx	r2, r2, #4, #3
 80011ec:	3301      	adds	r3, #1
 80011ee:	4348      	muls	r0, r1
 80011f0:	3201      	adds	r2, #1
 80011f2:	005b      	lsls	r3, r3, #1
 80011f4:	fbb0 f0f2 	udiv	r0, r0, r2
 80011f8:	fbb0 f0f3 	udiv	r0, r0, r3
 80011fc:	4770      	bx	lr
 80011fe:	4805      	ldr	r0, [pc, #20]	; (8001214 <HAL_RCC_GetSysClockFreq+0x98>)
 8001200:	e7eb      	b.n	80011da <HAL_RCC_GetSysClockFreq+0x5e>
 8001202:	4804      	ldr	r0, [pc, #16]	; (8001214 <HAL_RCC_GetSysClockFreq+0x98>)
 8001204:	4770      	bx	lr
 8001206:	bf00      	nop
 8001208:	40021000 	.word	0x40021000
 800120c:	08002ee0 	.word	0x08002ee0
 8001210:	007a1200 	.word	0x007a1200
 8001214:	00f42400 	.word	0x00f42400

08001218 <HAL_RCC_OscConfig>:
 8001218:	e92d 43f7 	stmdb	sp!, {r0, r1, r2, r4, r5, r6, r7, r8, r9, lr}
 800121c:	4605      	mov	r5, r0
 800121e:	b908      	cbnz	r0, 8001224 <HAL_RCC_OscConfig+0xc>
 8001220:	2001      	movs	r0, #1
 8001222:	e047      	b.n	80012b4 <HAL_RCC_OscConfig+0x9c>
 8001224:	4c9f      	ldr	r4, [pc, #636]	; (80014a4 <HAL_RCC_OscConfig+0x28c>)
 8001226:	6803      	ldr	r3, [r0, #0]
 8001228:	68a6      	ldr	r6, [r4, #8]
 800122a:	68e7      	ldr	r7, [r4, #12]
 800122c:	06db      	lsls	r3, r3, #27
 800122e:	f006 060c 	and.w	r6, r6, #12
 8001232:	f007 0703 	and.w	r7, r7, #3
 8001236:	d575      	bpl.n	8001324 <HAL_RCC_OscConfig+0x10c>
 8001238:	b11e      	cbz	r6, 8001242 <HAL_RCC_OscConfig+0x2a>
 800123a:	2e0c      	cmp	r6, #12
 800123c:	d154      	bne.n	80012e8 <HAL_RCC_OscConfig+0xd0>
 800123e:	2f01      	cmp	r7, #1
 8001240:	d152      	bne.n	80012e8 <HAL_RCC_OscConfig+0xd0>
 8001242:	6823      	ldr	r3, [r4, #0]
 8001244:	0798      	lsls	r0, r3, #30
 8001246:	d502      	bpl.n	800124e <HAL_RCC_OscConfig+0x36>
 8001248:	69ab      	ldr	r3, [r5, #24]
 800124a:	2b00      	cmp	r3, #0
 800124c:	d0e8      	beq.n	8001220 <HAL_RCC_OscConfig+0x8>
 800124e:	6823      	ldr	r3, [r4, #0]
 8001250:	6a28      	ldr	r0, [r5, #32]
 8001252:	0719      	lsls	r1, r3, #28
 8001254:	bf56      	itet	pl
 8001256:	f8d4 3094 	ldrpl.w	r3, [r4, #148]	; 0x94
 800125a:	6823      	ldrmi	r3, [r4, #0]
 800125c:	091b      	lsrpl	r3, r3, #4
 800125e:	f003 03f0 	and.w	r3, r3, #240	; 0xf0
 8001262:	4298      	cmp	r0, r3
 8001264:	d929      	bls.n	80012ba <HAL_RCC_OscConfig+0xa2>
 8001266:	f7ff ff47 	bl	80010f8 <RCC_SetFlashLatencyFromMSIRange>
 800126a:	2800      	cmp	r0, #0
 800126c:	d1d8      	bne.n	8001220 <HAL_RCC_OscConfig+0x8>
 800126e:	6823      	ldr	r3, [r4, #0]
 8001270:	f043 0308 	orr.w	r3, r3, #8
 8001274:	6023      	str	r3, [r4, #0]
 8001276:	6823      	ldr	r3, [r4, #0]
 8001278:	6a2a      	ldr	r2, [r5, #32]
 800127a:	f023 03f0 	bic.w	r3, r3, #240	; 0xf0
 800127e:	4313      	orrs	r3, r2
 8001280:	6023      	str	r3, [r4, #0]
 8001282:	6863      	ldr	r3, [r4, #4]
 8001284:	69ea      	ldr	r2, [r5, #28]
 8001286:	f423 437f 	bic.w	r3, r3, #65280	; 0xff00
 800128a:	ea43 2302 	orr.w	r3, r3, r2, lsl #8
 800128e:	6063      	str	r3, [r4, #4]
 8001290:	f7ff ff74 	bl	800117c <HAL_RCC_GetSysClockFreq>
 8001294:	68a3      	ldr	r3, [r4, #8]
 8001296:	4a84      	ldr	r2, [pc, #528]	; (80014a8 <HAL_RCC_OscConfig+0x290>)
 8001298:	f3c3 1303 	ubfx	r3, r3, #4, #4
 800129c:	5cd3      	ldrb	r3, [r2, r3]
 800129e:	f003 031f 	and.w	r3, r3, #31
 80012a2:	40d8      	lsrs	r0, r3
 80012a4:	4b81      	ldr	r3, [pc, #516]	; (80014ac <HAL_RCC_OscConfig+0x294>)
 80012a6:	6018      	str	r0, [r3, #0]
 80012a8:	4b81      	ldr	r3, [pc, #516]	; (80014b0 <HAL_RCC_OscConfig+0x298>)
 80012aa:	6818      	ldr	r0, [r3, #0]
 80012ac:	f7ff fd66 	bl	8000d7c <HAL_InitTick>
 80012b0:	2800      	cmp	r0, #0
 80012b2:	d037      	beq.n	8001324 <HAL_RCC_OscConfig+0x10c>
 80012b4:	b003      	add	sp, #12
 80012b6:	e8bd 83f0 	ldmia.w	sp!, {r4, r5, r6, r7, r8, r9, pc}
 80012ba:	6823      	ldr	r3, [r4, #0]
 80012bc:	f043 0308 	orr.w	r3, r3, #8
 80012c0:	6023      	str	r3, [r4, #0]
 80012c2:	6823      	ldr	r3, [r4, #0]
 80012c4:	f023 03f0 	bic.w	r3, r3, #240	; 0xf0
 80012c8:	4303      	orrs	r3, r0
 80012ca:	6023      	str	r3, [r4, #0]
 80012cc:	6863      	ldr	r3, [r4, #4]
 80012ce:	69ea      	ldr	r2, [r5, #28]
 80012d0:	f423 437f 	bic.w	r3, r3, #65280	; 0xff00
 80012d4:	ea43 2302 	orr.w	r3, r3, r2, lsl #8
 80012d8:	6063      	str	r3, [r4, #4]
 80012da:	2e00      	cmp	r6, #0
 80012dc:	d1d8      	bne.n	8001290 <HAL_RCC_OscConfig+0x78>
 80012de:	f7ff ff0b 	bl	80010f8 <RCC_SetFlashLatencyFromMSIRange>
 80012e2:	2800      	cmp	r0, #0
 80012e4:	d0d4      	beq.n	8001290 <HAL_RCC_OscConfig+0x78>
 80012e6:	e79b      	b.n	8001220 <HAL_RCC_OscConfig+0x8>
 80012e8:	69ab      	ldr	r3, [r5, #24]
 80012ea:	2b00      	cmp	r3, #0
 80012ec:	d03a      	beq.n	8001364 <HAL_RCC_OscConfig+0x14c>
 80012ee:	6823      	ldr	r3, [r4, #0]
 80012f0:	f043 0301 	orr.w	r3, r3, #1
 80012f4:	6023      	str	r3, [r4, #0]
 80012f6:	f7ff fd83 	bl	8000e00 <HAL_GetTick>
 80012fa:	4680      	mov	r8, r0
 80012fc:	6823      	ldr	r3, [r4, #0]
 80012fe:	079a      	lsls	r2, r3, #30
 8001300:	d528      	bpl.n	8001354 <HAL_RCC_OscConfig+0x13c>
 8001302:	6823      	ldr	r3, [r4, #0]
 8001304:	f043 0308 	orr.w	r3, r3, #8
 8001308:	6023      	str	r3, [r4, #0]
 800130a:	6823      	ldr	r3, [r4, #0]
 800130c:	6a2a      	ldr	r2, [r5, #32]
 800130e:	f023 03f0 	bic.w	r3, r3, #240	; 0xf0
 8001312:	4313      	orrs	r3, r2
 8001314:	6023      	str	r3, [r4, #0]
 8001316:	6863      	ldr	r3, [r4, #4]
 8001318:	69ea      	ldr	r2, [r5, #28]
 800131a:	f423 437f 	bic.w	r3, r3, #65280	; 0xff00
 800131e:	ea43 2302 	orr.w	r3, r3, r2, lsl #8
 8001322:	6063      	str	r3, [r4, #4]
 8001324:	682b      	ldr	r3, [r5, #0]
 8001326:	07d8      	lsls	r0, r3, #31
 8001328:	d42d      	bmi.n	8001386 <HAL_RCC_OscConfig+0x16e>
 800132a:	682b      	ldr	r3, [r5, #0]
 800132c:	0799      	lsls	r1, r3, #30
 800132e:	d46b      	bmi.n	8001408 <HAL_RCC_OscConfig+0x1f0>
 8001330:	682b      	ldr	r3, [r5, #0]
 8001332:	0718      	lsls	r0, r3, #28
 8001334:	f100 80a0 	bmi.w	8001478 <HAL_RCC_OscConfig+0x260>
 8001338:	682b      	ldr	r3, [r5, #0]
 800133a:	0759      	lsls	r1, r3, #29
 800133c:	f100 80ce 	bmi.w	80014dc <HAL_RCC_OscConfig+0x2c4>
 8001340:	682b      	ldr	r3, [r5, #0]
 8001342:	0698      	lsls	r0, r3, #26
 8001344:	f100 8137 	bmi.w	80015b6 <HAL_RCC_OscConfig+0x39e>
 8001348:	6aab      	ldr	r3, [r5, #40]	; 0x28
 800134a:	2b00      	cmp	r3, #0
 800134c:	f040 815d 	bne.w	800160a <HAL_RCC_OscConfig+0x3f2>
 8001350:	2000      	movs	r0, #0
 8001352:	e7af      	b.n	80012b4 <HAL_RCC_OscConfig+0x9c>
 8001354:	f7ff fd54 	bl	8000e00 <HAL_GetTick>
 8001358:	eba0 0008 	sub.w	r0, r0, r8
 800135c:	2802      	cmp	r0, #2
 800135e:	d9cd      	bls.n	80012fc <HAL_RCC_OscConfig+0xe4>
 8001360:	2003      	movs	r0, #3
 8001362:	e7a7      	b.n	80012b4 <HAL_RCC_OscConfig+0x9c>
 8001364:	6823      	ldr	r3, [r4, #0]
 8001366:	f023 0301 	bic.w	r3, r3, #1
 800136a:	6023      	str	r3, [r4, #0]
 800136c:	f7ff fd48 	bl	8000e00 <HAL_GetTick>
 8001370:	4680      	mov	r8, r0
 8001372:	6823      	ldr	r3, [r4, #0]
 8001374:	079b      	lsls	r3, r3, #30
 8001376:	d5d5      	bpl.n	8001324 <HAL_RCC_OscConfig+0x10c>
 8001378:	f7ff fd42 	bl	8000e00 <HAL_GetTick>
 800137c:	eba0 0008 	sub.w	r0, r0, r8
 8001380:	2802      	cmp	r0, #2
 8001382:	d9f6      	bls.n	8001372 <HAL_RCC_OscConfig+0x15a>
 8001384:	e7ec      	b.n	8001360 <HAL_RCC_OscConfig+0x148>
 8001386:	2e08      	cmp	r6, #8
 8001388:	d003      	beq.n	8001392 <HAL_RCC_OscConfig+0x17a>
 800138a:	2e0c      	cmp	r6, #12
 800138c:	d108      	bne.n	80013a0 <HAL_RCC_OscConfig+0x188>
 800138e:	2f03      	cmp	r7, #3
 8001390:	d106      	bne.n	80013a0 <HAL_RCC_OscConfig+0x188>
 8001392:	6823      	ldr	r3, [r4, #0]
 8001394:	039a      	lsls	r2, r3, #14
 8001396:	d5c8      	bpl.n	800132a <HAL_RCC_OscConfig+0x112>
 8001398:	686b      	ldr	r3, [r5, #4]
 800139a:	2b00      	cmp	r3, #0
 800139c:	d1c5      	bne.n	800132a <HAL_RCC_OscConfig+0x112>
 800139e:	e73f      	b.n	8001220 <HAL_RCC_OscConfig+0x8>
 80013a0:	686b      	ldr	r3, [r5, #4]
 80013a2:	f5b3 3f80 	cmp.w	r3, #65536	; 0x10000
 80013a6:	d110      	bne.n	80013ca <HAL_RCC_OscConfig+0x1b2>
 80013a8:	6823      	ldr	r3, [r4, #0]
 80013aa:	f443 3380 	orr.w	r3, r3, #65536	; 0x10000
 80013ae:	6023      	str	r3, [r4, #0]
 80013b0:	f7ff fd26 	bl	8000e00 <HAL_GetTick>
 80013b4:	4680      	mov	r8, r0
 80013b6:	6823      	ldr	r3, [r4, #0]
 80013b8:	039b      	lsls	r3, r3, #14
 80013ba:	d4b6      	bmi.n	800132a <HAL_RCC_OscConfig+0x112>
 80013bc:	f7ff fd20 	bl	8000e00 <HAL_GetTick>
 80013c0:	eba0 0008 	sub.w	r0, r0, r8
 80013c4:	2864      	cmp	r0, #100	; 0x64
 80013c6:	d9f6      	bls.n	80013b6 <HAL_RCC_OscConfig+0x19e>
 80013c8:	e7ca      	b.n	8001360 <HAL_RCC_OscConfig+0x148>
 80013ca:	f5b3 2fa0 	cmp.w	r3, #327680	; 0x50000
 80013ce:	d104      	bne.n	80013da <HAL_RCC_OscConfig+0x1c2>
 80013d0:	6823      	ldr	r3, [r4, #0]
 80013d2:	f443 2380 	orr.w	r3, r3, #262144	; 0x40000
 80013d6:	6023      	str	r3, [r4, #0]
 80013d8:	e7e6      	b.n	80013a8 <HAL_RCC_OscConfig+0x190>
 80013da:	6822      	ldr	r2, [r4, #0]
 80013dc:	f422 3280 	bic.w	r2, r2, #65536	; 0x10000
 80013e0:	6022      	str	r2, [r4, #0]
 80013e2:	6822      	ldr	r2, [r4, #0]
 80013e4:	f422 2280 	bic.w	r2, r2, #262144	; 0x40000
 80013e8:	6022      	str	r2, [r4, #0]
 80013ea:	2b00      	cmp	r3, #0
 80013ec:	d1e0      	bne.n	80013b0 <HAL_RCC_OscConfig+0x198>
 80013ee:	f7ff fd07 	bl	8000e00 <HAL_GetTick>
 80013f2:	4680      	mov	r8, r0
 80013f4:	6823      	ldr	r3, [r4, #0]
 80013f6:	0398      	lsls	r0, r3, #14
 80013f8:	d597      	bpl.n	800132a <HAL_RCC_OscConfig+0x112>
 80013fa:	f7ff fd01 	bl	8000e00 <HAL_GetTick>
 80013fe:	eba0 0008 	sub.w	r0, r0, r8
 8001402:	2864      	cmp	r0, #100	; 0x64
 8001404:	d9f6      	bls.n	80013f4 <HAL_RCC_OscConfig+0x1dc>
 8001406:	e7ab      	b.n	8001360 <HAL_RCC_OscConfig+0x148>
 8001408:	2e04      	cmp	r6, #4
 800140a:	d003      	beq.n	8001414 <HAL_RCC_OscConfig+0x1fc>
 800140c:	2e0c      	cmp	r6, #12
 800140e:	d110      	bne.n	8001432 <HAL_RCC_OscConfig+0x21a>
 8001410:	2f02      	cmp	r7, #2
 8001412:	d10e      	bne.n	8001432 <HAL_RCC_OscConfig+0x21a>
 8001414:	6823      	ldr	r3, [r4, #0]
 8001416:	0559      	lsls	r1, r3, #21
 8001418:	d503      	bpl.n	8001422 <HAL_RCC_OscConfig+0x20a>
 800141a:	68eb      	ldr	r3, [r5, #12]
 800141c:	2b00      	cmp	r3, #0
 800141e:	f43f aeff 	beq.w	8001220 <HAL_RCC_OscConfig+0x8>
 8001422:	6863      	ldr	r3, [r4, #4]
 8001424:	692a      	ldr	r2, [r5, #16]
 8001426:	f023 43fe 	bic.w	r3, r3, #2130706432	; 0x7f000000
 800142a:	ea43 6302 	orr.w	r3, r3, r2, lsl #24
 800142e:	6063      	str	r3, [r4, #4]
 8001430:	e77e      	b.n	8001330 <HAL_RCC_OscConfig+0x118>
 8001432:	68eb      	ldr	r3, [r5, #12]
 8001434:	b17b      	cbz	r3, 8001456 <HAL_RCC_OscConfig+0x23e>
 8001436:	6823      	ldr	r3, [r4, #0]
 8001438:	f443 7380 	orr.w	r3, r3, #256	; 0x100
 800143c:	6023      	str	r3, [r4, #0]
 800143e:	f7ff fcdf 	bl	8000e00 <HAL_GetTick>
 8001442:	4607      	mov	r7, r0
 8001444:	6823      	ldr	r3, [r4, #0]
 8001446:	055a      	lsls	r2, r3, #21
 8001448:	d4eb      	bmi.n	8001422 <HAL_RCC_OscConfig+0x20a>
 800144a:	f7ff fcd9 	bl	8000e00 <HAL_GetTick>
 800144e:	1bc0      	subs	r0, r0, r7
 8001450:	2802      	cmp	r0, #2
 8001452:	d9f7      	bls.n	8001444 <HAL_RCC_OscConfig+0x22c>
 8001454:	e784      	b.n	8001360 <HAL_RCC_OscConfig+0x148>
 8001456:	6823      	ldr	r3, [r4, #0]
 8001458:	f423 7380 	bic.w	r3, r3, #256	; 0x100
 800145c:	6023      	str	r3, [r4, #0]
 800145e:	f7ff fccf 	bl	8000e00 <HAL_GetTick>
 8001462:	4607      	mov	r7, r0
 8001464:	6823      	ldr	r3, [r4, #0]
 8001466:	055b      	lsls	r3, r3, #21
 8001468:	f57f af62 	bpl.w	8001330 <HAL_RCC_OscConfig+0x118>
 800146c:	f7ff fcc8 	bl	8000e00 <HAL_GetTick>
 8001470:	1bc0      	subs	r0, r0, r7
 8001472:	2802      	cmp	r0, #2
 8001474:	d9f6      	bls.n	8001464 <HAL_RCC_OscConfig+0x24c>
 8001476:	e773      	b.n	8001360 <HAL_RCC_OscConfig+0x148>
 8001478:	696b      	ldr	r3, [r5, #20]
 800147a:	b1db      	cbz	r3, 80014b4 <HAL_RCC_OscConfig+0x29c>
 800147c:	f8d4 3094 	ldr.w	r3, [r4, #148]	; 0x94
 8001480:	f043 0301 	orr.w	r3, r3, #1
 8001484:	f8c4 3094 	str.w	r3, [r4, #148]	; 0x94
 8001488:	f7ff fcba 	bl	8000e00 <HAL_GetTick>
 800148c:	4607      	mov	r7, r0
 800148e:	f8d4 3094 	ldr.w	r3, [r4, #148]	; 0x94
 8001492:	079a      	lsls	r2, r3, #30
 8001494:	f53f af50 	bmi.w	8001338 <HAL_RCC_OscConfig+0x120>
 8001498:	f7ff fcb2 	bl	8000e00 <HAL_GetTick>
 800149c:	1bc0      	subs	r0, r0, r7
 800149e:	2802      	cmp	r0, #2
 80014a0:	d9f5      	bls.n	800148e <HAL_RCC_OscConfig+0x276>
 80014a2:	e75d      	b.n	8001360 <HAL_RCC_OscConfig+0x148>
 80014a4:	40021000 	.word	0x40021000
 80014a8:	08002ed0 	.word	0x08002ed0
 80014ac:	20000000 	.word	0x20000000
 80014b0:	20000008 	.word	0x20000008
 80014b4:	f8d4 3094 	ldr.w	r3, [r4, #148]	; 0x94
 80014b8:	f023 0301 	bic.w	r3, r3, #1
 80014bc:	f8c4 3094 	str.w	r3, [r4, #148]	; 0x94
 80014c0:	f7ff fc9e 	bl	8000e00 <HAL_GetTick>
 80014c4:	4607      	mov	r7, r0
 80014c6:	f8d4 3094 	ldr.w	r3, [r4, #148]	; 0x94
 80014ca:	079b      	lsls	r3, r3, #30
 80014cc:	f57f af34 	bpl.w	8001338 <HAL_RCC_OscConfig+0x120>
 80014d0:	f7ff fc96 	bl	8000e00 <HAL_GetTick>
 80014d4:	1bc0      	subs	r0, r0, r7
 80014d6:	2802      	cmp	r0, #2
 80014d8:	d9f5      	bls.n	80014c6 <HAL_RCC_OscConfig+0x2ae>
 80014da:	e741      	b.n	8001360 <HAL_RCC_OscConfig+0x148>
 80014dc:	6da3      	ldr	r3, [r4, #88]	; 0x58
 80014de:	00df      	lsls	r7, r3, #3
 80014e0:	d429      	bmi.n	8001536 <HAL_RCC_OscConfig+0x31e>
 80014e2:	6da3      	ldr	r3, [r4, #88]	; 0x58
 80014e4:	f043 5380 	orr.w	r3, r3, #268435456	; 0x10000000
 80014e8:	65a3      	str	r3, [r4, #88]	; 0x58
 80014ea:	6da3      	ldr	r3, [r4, #88]	; 0x58
 80014ec:	f003 5380 	and.w	r3, r3, #268435456	; 0x10000000
 80014f0:	9301      	str	r3, [sp, #4]
 80014f2:	9b01      	ldr	r3, [sp, #4]
 80014f4:	f04f 0801 	mov.w	r8, #1
 80014f8:	4f9a      	ldr	r7, [pc, #616]	; (8001764 <HAL_RCC_OscConfig+0x54c>)
 80014fa:	683b      	ldr	r3, [r7, #0]
 80014fc:	05d8      	lsls	r0, r3, #23
 80014fe:	d51d      	bpl.n	800153c <HAL_RCC_OscConfig+0x324>
 8001500:	68ab      	ldr	r3, [r5, #8]
 8001502:	2b01      	cmp	r3, #1
 8001504:	d12b      	bne.n	800155e <HAL_RCC_OscConfig+0x346>
 8001506:	f8d4 3090 	ldr.w	r3, [r4, #144]	; 0x90
 800150a:	f043 0301 	orr.w	r3, r3, #1
 800150e:	f8c4 3090 	str.w	r3, [r4, #144]	; 0x90
 8001512:	f7ff fc75 	bl	8000e00 <HAL_GetTick>
 8001516:	f241 3988 	movw	r9, #5000	; 0x1388
 800151a:	4607      	mov	r7, r0
 800151c:	f8d4 3090 	ldr.w	r3, [r4, #144]	; 0x90
 8001520:	079a      	lsls	r2, r3, #30
 8001522:	d542      	bpl.n	80015aa <HAL_RCC_OscConfig+0x392>
 8001524:	f1b8 0f00 	cmp.w	r8, #0
 8001528:	f43f af0a 	beq.w	8001340 <HAL_RCC_OscConfig+0x128>
 800152c:	6da3      	ldr	r3, [r4, #88]	; 0x58
 800152e:	f023 5380 	bic.w	r3, r3, #268435456	; 0x10000000
 8001532:	65a3      	str	r3, [r4, #88]	; 0x58
 8001534:	e704      	b.n	8001340 <HAL_RCC_OscConfig+0x128>
 8001536:	f04f 0800 	mov.w	r8, #0
 800153a:	e7dd      	b.n	80014f8 <HAL_RCC_OscConfig+0x2e0>
 800153c:	683b      	ldr	r3, [r7, #0]
 800153e:	f443 7380 	orr.w	r3, r3, #256	; 0x100
 8001542:	603b      	str	r3, [r7, #0]
 8001544:	f7ff fc5c 	bl	8000e00 <HAL_GetTick>
 8001548:	4681      	mov	r9, r0
 800154a:	683b      	ldr	r3, [r7, #0]
 800154c:	05d9      	lsls	r1, r3, #23
 800154e:	d4d7      	bmi.n	8001500 <HAL_RCC_OscConfig+0x2e8>
 8001550:	f7ff fc56 	bl	8000e00 <HAL_GetTick>
 8001554:	eba0 0009 	sub.w	r0, r0, r9
 8001558:	2802      	cmp	r0, #2
 800155a:	d9f6      	bls.n	800154a <HAL_RCC_OscConfig+0x332>
 800155c:	e700      	b.n	8001360 <HAL_RCC_OscConfig+0x148>
 800155e:	2b05      	cmp	r3, #5
 8001560:	d106      	bne.n	8001570 <HAL_RCC_OscConfig+0x358>
 8001562:	f8d4 3090 	ldr.w	r3, [r4, #144]	; 0x90
 8001566:	f043 0304 	orr.w	r3, r3, #4
 800156a:	f8c4 3090 	str.w	r3, [r4, #144]	; 0x90
 800156e:	e7ca      	b.n	8001506 <HAL_RCC_OscConfig+0x2ee>
 8001570:	f8d4 2090 	ldr.w	r2, [r4, #144]	; 0x90
 8001574:	f022 0201 	bic.w	r2, r2, #1
 8001578:	f8c4 2090 	str.w	r2, [r4, #144]	; 0x90
 800157c:	f8d4 2090 	ldr.w	r2, [r4, #144]	; 0x90
 8001580:	f022 0204 	bic.w	r2, r2, #4
 8001584:	f8c4 2090 	str.w	r2, [r4, #144]	; 0x90
 8001588:	2b00      	cmp	r3, #0
 800158a:	d1c2      	bne.n	8001512 <HAL_RCC_OscConfig+0x2fa>
 800158c:	f7ff fc38 	bl	8000e00 <HAL_GetTick>
 8001590:	f241 3988 	movw	r9, #5000	; 0x1388
 8001594:	4607      	mov	r7, r0
 8001596:	f8d4 3090 	ldr.w	r3, [r4, #144]	; 0x90
 800159a:	079b      	lsls	r3, r3, #30
 800159c:	d5c2      	bpl.n	8001524 <HAL_RCC_OscConfig+0x30c>
 800159e:	f7ff fc2f 	bl	8000e00 <HAL_GetTick>
 80015a2:	1bc0      	subs	r0, r0, r7
 80015a4:	4548      	cmp	r0, r9
 80015a6:	d9f6      	bls.n	8001596 <HAL_RCC_OscConfig+0x37e>
 80015a8:	e6da      	b.n	8001360 <HAL_RCC_OscConfig+0x148>
 80015aa:	f7ff fc29 	bl	8000e00 <HAL_GetTick>
 80015ae:	1bc0      	subs	r0, r0, r7
 80015b0:	4548      	cmp	r0, r9
 80015b2:	d9b3      	bls.n	800151c <HAL_RCC_OscConfig+0x304>
 80015b4:	e6d4      	b.n	8001360 <HAL_RCC_OscConfig+0x148>
 80015b6:	6a6b      	ldr	r3, [r5, #36]	; 0x24
 80015b8:	b19b      	cbz	r3, 80015e2 <HAL_RCC_OscConfig+0x3ca>
 80015ba:	f8d4 3098 	ldr.w	r3, [r4, #152]	; 0x98
 80015be:	f043 0301 	orr.w	r3, r3, #1
 80015c2:	f8c4 3098 	str.w	r3, [r4, #152]	; 0x98
 80015c6:	f7ff fc1b 	bl	8000e00 <HAL_GetTick>
 80015ca:	4607      	mov	r7, r0
 80015cc:	f8d4 3098 	ldr.w	r3, [r4, #152]	; 0x98
 80015d0:	0799      	lsls	r1, r3, #30
 80015d2:	f53f aeb9 	bmi.w	8001348 <HAL_RCC_OscConfig+0x130>
 80015d6:	f7ff fc13 	bl	8000e00 <HAL_GetTick>
 80015da:	1bc0      	subs	r0, r0, r7
 80015dc:	2802      	cmp	r0, #2
 80015de:	d9f5      	bls.n	80015cc <HAL_RCC_OscConfig+0x3b4>
 80015e0:	e6be      	b.n	8001360 <HAL_RCC_OscConfig+0x148>
 80015e2:	f8d4 3098 	ldr.w	r3, [r4, #152]	; 0x98
 80015e6:	f023 0301 	bic.w	r3, r3, #1
 80015ea:	f8c4 3098 	str.w	r3, [r4, #152]	; 0x98
 80015ee:	f7ff fc07 	bl	8000e00 <HAL_GetTick>
 80015f2:	4607      	mov	r7, r0
 80015f4:	f8d4 3098 	ldr.w	r3, [r4, #152]	; 0x98
 80015f8:	079a      	lsls	r2, r3, #30
 80015fa:	f57f aea5 	bpl.w	8001348 <HAL_RCC_OscConfig+0x130>
 80015fe:	f7ff fbff 	bl	8000e00 <HAL_GetTick>
 8001602:	1bc0      	subs	r0, r0, r7
 8001604:	2802      	cmp	r0, #2
 8001606:	d9f5      	bls.n	80015f4 <HAL_RCC_OscConfig+0x3dc>
 8001608:	e6aa      	b.n	8001360 <HAL_RCC_OscConfig+0x148>
 800160a:	2b02      	cmp	r3, #2
 800160c:	f040 8088 	bne.w	8001720 <HAL_RCC_OscConfig+0x508>
 8001610:	68e3      	ldr	r3, [r4, #12]
 8001612:	6aea      	ldr	r2, [r5, #44]	; 0x2c
 8001614:	f003 0103 	and.w	r1, r3, #3
 8001618:	4291      	cmp	r1, r2
 800161a:	d122      	bne.n	8001662 <HAL_RCC_OscConfig+0x44a>
 800161c:	6b29      	ldr	r1, [r5, #48]	; 0x30
 800161e:	f003 0270 	and.w	r2, r3, #112	; 0x70
 8001622:	3901      	subs	r1, #1
 8001624:	ebb2 1f01 	cmp.w	r2, r1, lsl #4
 8001628:	d11b      	bne.n	8001662 <HAL_RCC_OscConfig+0x44a>
 800162a:	6b69      	ldr	r1, [r5, #52]	; 0x34
 800162c:	f403 42fe 	and.w	r2, r3, #32512	; 0x7f00
 8001630:	ebb2 2f01 	cmp.w	r2, r1, lsl #8
 8001634:	d115      	bne.n	8001662 <HAL_RCC_OscConfig+0x44a>
 8001636:	6ba9      	ldr	r1, [r5, #56]	; 0x38
 8001638:	f003 4278 	and.w	r2, r3, #4160749568	; 0xf8000000
 800163c:	ebb2 6fc1 	cmp.w	r2, r1, lsl #27
 8001640:	d10f      	bne.n	8001662 <HAL_RCC_OscConfig+0x44a>
 8001642:	6bea      	ldr	r2, [r5, #60]	; 0x3c
 8001644:	0852      	lsrs	r2, r2, #1
 8001646:	f403 01c0 	and.w	r1, r3, #6291456	; 0x600000
 800164a:	3a01      	subs	r2, #1
 800164c:	ebb1 5f42 	cmp.w	r1, r2, lsl #21
 8001650:	d107      	bne.n	8001662 <HAL_RCC_OscConfig+0x44a>
 8001652:	6c2a      	ldr	r2, [r5, #64]	; 0x40
 8001654:	0852      	lsrs	r2, r2, #1
 8001656:	f003 63c0 	and.w	r3, r3, #100663296	; 0x6000000
 800165a:	3a01      	subs	r2, #1
 800165c:	ebb3 6f42 	cmp.w	r3, r2, lsl #25
 8001660:	d045      	beq.n	80016ee <HAL_RCC_OscConfig+0x4d6>
 8001662:	2e0c      	cmp	r6, #12
 8001664:	f43f addc 	beq.w	8001220 <HAL_RCC_OscConfig+0x8>
 8001668:	6823      	ldr	r3, [r4, #0]
 800166a:	015b      	lsls	r3, r3, #5
 800166c:	f53f add8 	bmi.w	8001220 <HAL_RCC_OscConfig+0x8>
 8001670:	6823      	ldr	r3, [r4, #0]
 8001672:	f023 7380 	bic.w	r3, r3, #16777216	; 0x1000000
 8001676:	6023      	str	r3, [r4, #0]
 8001678:	f7ff fbc2 	bl	8000e00 <HAL_GetTick>
 800167c:	4606      	mov	r6, r0
 800167e:	6823      	ldr	r3, [r4, #0]
 8001680:	019f      	lsls	r7, r3, #6
 8001682:	d42e      	bmi.n	80016e2 <HAL_RCC_OscConfig+0x4ca>
 8001684:	68e2      	ldr	r2, [r4, #12]
 8001686:	4b38      	ldr	r3, [pc, #224]	; (8001768 <HAL_RCC_OscConfig+0x550>)
 8001688:	4013      	ands	r3, r2
 800168a:	6aea      	ldr	r2, [r5, #44]	; 0x2c
 800168c:	4313      	orrs	r3, r2
 800168e:	6b6a      	ldr	r2, [r5, #52]	; 0x34
 8001690:	ea43 2302 	orr.w	r3, r3, r2, lsl #8
 8001694:	6baa      	ldr	r2, [r5, #56]	; 0x38
 8001696:	ea43 63c2 	orr.w	r3, r3, r2, lsl #27
 800169a:	6b2a      	ldr	r2, [r5, #48]	; 0x30
 800169c:	3a01      	subs	r2, #1
 800169e:	ea43 1302 	orr.w	r3, r3, r2, lsl #4
 80016a2:	6bea      	ldr	r2, [r5, #60]	; 0x3c
 80016a4:	0852      	lsrs	r2, r2, #1
 80016a6:	3a01      	subs	r2, #1
 80016a8:	ea43 5342 	orr.w	r3, r3, r2, lsl #21
 80016ac:	6c2a      	ldr	r2, [r5, #64]	; 0x40
 80016ae:	0852      	lsrs	r2, r2, #1
 80016b0:	3a01      	subs	r2, #1
 80016b2:	ea43 6342 	orr.w	r3, r3, r2, lsl #25
 80016b6:	60e3      	str	r3, [r4, #12]
 80016b8:	6823      	ldr	r3, [r4, #0]
 80016ba:	f043 7380 	orr.w	r3, r3, #16777216	; 0x1000000
 80016be:	6023      	str	r3, [r4, #0]
 80016c0:	68e3      	ldr	r3, [r4, #12]
 80016c2:	f043 7380 	orr.w	r3, r3, #16777216	; 0x1000000
 80016c6:	60e3      	str	r3, [r4, #12]
 80016c8:	f7ff fb9a 	bl	8000e00 <HAL_GetTick>
 80016cc:	4605      	mov	r5, r0
 80016ce:	6823      	ldr	r3, [r4, #0]
 80016d0:	019e      	lsls	r6, r3, #6
 80016d2:	f53f ae3d 	bmi.w	8001350 <HAL_RCC_OscConfig+0x138>
 80016d6:	f7ff fb93 	bl	8000e00 <HAL_GetTick>
 80016da:	1b40      	subs	r0, r0, r5
 80016dc:	2802      	cmp	r0, #2
 80016de:	d9f6      	bls.n	80016ce <HAL_RCC_OscConfig+0x4b6>
 80016e0:	e63e      	b.n	8001360 <HAL_RCC_OscConfig+0x148>
 80016e2:	f7ff fb8d 	bl	8000e00 <HAL_GetTick>
 80016e6:	1b80      	subs	r0, r0, r6
 80016e8:	2802      	cmp	r0, #2
 80016ea:	d9c8      	bls.n	800167e <HAL_RCC_OscConfig+0x466>
 80016ec:	e638      	b.n	8001360 <HAL_RCC_OscConfig+0x148>
 80016ee:	6823      	ldr	r3, [r4, #0]
 80016f0:	0198      	lsls	r0, r3, #6
 80016f2:	f53f ae2d 	bmi.w	8001350 <HAL_RCC_OscConfig+0x138>
 80016f6:	6823      	ldr	r3, [r4, #0]
 80016f8:	f043 7380 	orr.w	r3, r3, #16777216	; 0x1000000
 80016fc:	6023      	str	r3, [r4, #0]
 80016fe:	68e3      	ldr	r3, [r4, #12]
 8001700:	f043 7380 	orr.w	r3, r3, #16777216	; 0x1000000
 8001704:	60e3      	str	r3, [r4, #12]
 8001706:	f7ff fb7b 	bl	8000e00 <HAL_GetTick>
 800170a:	4605      	mov	r5, r0
 800170c:	6823      	ldr	r3, [r4, #0]
 800170e:	0199      	lsls	r1, r3, #6
 8001710:	f53f ae1e 	bmi.w	8001350 <HAL_RCC_OscConfig+0x138>
 8001714:	f7ff fb74 	bl	8000e00 <HAL_GetTick>
 8001718:	1b40      	subs	r0, r0, r5
 800171a:	2802      	cmp	r0, #2
 800171c:	d9f6      	bls.n	800170c <HAL_RCC_OscConfig+0x4f4>
 800171e:	e61f      	b.n	8001360 <HAL_RCC_OscConfig+0x148>
 8001720:	2e0c      	cmp	r6, #12
 8001722:	f43f ad7d 	beq.w	8001220 <HAL_RCC_OscConfig+0x8>
 8001726:	6823      	ldr	r3, [r4, #0]
 8001728:	f023 7380 	bic.w	r3, r3, #16777216	; 0x1000000
 800172c:	6023      	str	r3, [r4, #0]
 800172e:	6823      	ldr	r3, [r4, #0]
 8001730:	011a      	lsls	r2, r3, #4
 8001732:	bf5e      	ittt	pl
 8001734:	68e3      	ldrpl	r3, [r4, #12]
 8001736:	f023 0303 	bicpl.w	r3, r3, #3
 800173a:	60e3      	strpl	r3, [r4, #12]
 800173c:	68e3      	ldr	r3, [r4, #12]
 800173e:	f023 7388 	bic.w	r3, r3, #17825792	; 0x1100000
 8001742:	f423 3380 	bic.w	r3, r3, #65536	; 0x10000
 8001746:	60e3      	str	r3, [r4, #12]
 8001748:	f7ff fb5a 	bl	8000e00 <HAL_GetTick>
 800174c:	4605      	mov	r5, r0
 800174e:	6823      	ldr	r3, [r4, #0]
 8001750:	019b      	lsls	r3, r3, #6
 8001752:	f57f adfd 	bpl.w	8001350 <HAL_RCC_OscConfig+0x138>
 8001756:	f7ff fb53 	bl	8000e00 <HAL_GetTick>
 800175a:	1b40      	subs	r0, r0, r5
 800175c:	2802      	cmp	r0, #2
 800175e:	d9f6      	bls.n	800174e <HAL_RCC_OscConfig+0x536>
 8001760:	e5fe      	b.n	8001360 <HAL_RCC_OscConfig+0x148>
 8001762:	bf00      	nop
 8001764:	40007000 	.word	0x40007000
 8001768:	019d808c 	.word	0x019d808c

0800176c <HAL_RCC_ClockConfig>:
 800176c:	e92d 41f0 	stmdb	sp!, {r4, r5, r6, r7, r8, lr}
 8001770:	460e      	mov	r6, r1
 8001772:	4604      	mov	r4, r0
 8001774:	b910      	cbnz	r0, 800177c <HAL_RCC_ClockConfig+0x10>
 8001776:	2001      	movs	r0, #1
 8001778:	e8bd 81f0 	ldmia.w	sp!, {r4, r5, r6, r7, r8, pc}
 800177c:	4a40      	ldr	r2, [pc, #256]	; (8001880 <HAL_RCC_ClockConfig+0x114>)
 800177e:	6813      	ldr	r3, [r2, #0]
 8001780:	f003 0307 	and.w	r3, r3, #7
 8001784:	428b      	cmp	r3, r1
 8001786:	d32a      	bcc.n	80017de <HAL_RCC_ClockConfig+0x72>
 8001788:	6823      	ldr	r3, [r4, #0]
 800178a:	07d9      	lsls	r1, r3, #31
 800178c:	d432      	bmi.n	80017f4 <HAL_RCC_ClockConfig+0x88>
 800178e:	6821      	ldr	r1, [r4, #0]
 8001790:	078a      	lsls	r2, r1, #30
 8001792:	d45b      	bmi.n	800184c <HAL_RCC_ClockConfig+0xe0>
 8001794:	4a3a      	ldr	r2, [pc, #232]	; (8001880 <HAL_RCC_ClockConfig+0x114>)
 8001796:	6813      	ldr	r3, [r2, #0]
 8001798:	f003 0307 	and.w	r3, r3, #7
 800179c:	42b3      	cmp	r3, r6
 800179e:	d85d      	bhi.n	800185c <HAL_RCC_ClockConfig+0xf0>
 80017a0:	f011 0f04 	tst.w	r1, #4
 80017a4:	4d37      	ldr	r5, [pc, #220]	; (8001884 <HAL_RCC_ClockConfig+0x118>)
 80017a6:	d164      	bne.n	8001872 <HAL_RCC_ClockConfig+0x106>
 80017a8:	070b      	lsls	r3, r1, #28
 80017aa:	d506      	bpl.n	80017ba <HAL_RCC_ClockConfig+0x4e>
 80017ac:	68ab      	ldr	r3, [r5, #8]
 80017ae:	6922      	ldr	r2, [r4, #16]
 80017b0:	f423 5360 	bic.w	r3, r3, #14336	; 0x3800
 80017b4:	ea43 03c2 	orr.w	r3, r3, r2, lsl #3
 80017b8:	60ab      	str	r3, [r5, #8]
 80017ba:	f7ff fcdf 	bl	800117c <HAL_RCC_GetSysClockFreq>
 80017be:	68ab      	ldr	r3, [r5, #8]
 80017c0:	4a31      	ldr	r2, [pc, #196]	; (8001888 <HAL_RCC_ClockConfig+0x11c>)
 80017c2:	f3c3 1303 	ubfx	r3, r3, #4, #4
 80017c6:	e8bd 41f0 	ldmia.w	sp!, {r4, r5, r6, r7, r8, lr}
 80017ca:	5cd3      	ldrb	r3, [r2, r3]
 80017cc:	f003 031f 	and.w	r3, r3, #31
 80017d0:	40d8      	lsrs	r0, r3
 80017d2:	4b2e      	ldr	r3, [pc, #184]	; (800188c <HAL_RCC_ClockConfig+0x120>)
 80017d4:	6018      	str	r0, [r3, #0]
 80017d6:	4b2e      	ldr	r3, [pc, #184]	; (8001890 <HAL_RCC_ClockConfig+0x124>)
 80017d8:	6818      	ldr	r0, [r3, #0]
 80017da:	f7ff bacf 	b.w	8000d7c <HAL_InitTick>
 80017de:	6813      	ldr	r3, [r2, #0]
 80017e0:	f023 0307 	bic.w	r3, r3, #7
 80017e4:	430b      	orrs	r3, r1
 80017e6:	6013      	str	r3, [r2, #0]
 80017e8:	6813      	ldr	r3, [r2, #0]
 80017ea:	f003 0307 	and.w	r3, r3, #7
 80017ee:	428b      	cmp	r3, r1
 80017f0:	d1c1      	bne.n	8001776 <HAL_RCC_ClockConfig+0xa>
 80017f2:	e7c9      	b.n	8001788 <HAL_RCC_ClockConfig+0x1c>
 80017f4:	6862      	ldr	r2, [r4, #4]
 80017f6:	4d23      	ldr	r5, [pc, #140]	; (8001884 <HAL_RCC_ClockConfig+0x118>)
 80017f8:	2a03      	cmp	r2, #3
 80017fa:	682b      	ldr	r3, [r5, #0]
 80017fc:	d11a      	bne.n	8001834 <HAL_RCC_ClockConfig+0xc8>
 80017fe:	f013 7f00 	tst.w	r3, #33554432	; 0x2000000
 8001802:	d0b8      	beq.n	8001776 <HAL_RCC_ClockConfig+0xa>
 8001804:	68ab      	ldr	r3, [r5, #8]
 8001806:	f023 0303 	bic.w	r3, r3, #3
 800180a:	4313      	orrs	r3, r2
 800180c:	60ab      	str	r3, [r5, #8]
 800180e:	f7ff faf7 	bl	8000e00 <HAL_GetTick>
 8001812:	f241 3888 	movw	r8, #5000	; 0x1388
 8001816:	4607      	mov	r7, r0
 8001818:	68ab      	ldr	r3, [r5, #8]
 800181a:	6862      	ldr	r2, [r4, #4]
 800181c:	f003 030c 	and.w	r3, r3, #12
 8001820:	ebb3 0f82 	cmp.w	r3, r2, lsl #2
 8001824:	d0b3      	beq.n	800178e <HAL_RCC_ClockConfig+0x22>
 8001826:	f7ff faeb 	bl	8000e00 <HAL_GetTick>
 800182a:	1bc0      	subs	r0, r0, r7
 800182c:	4540      	cmp	r0, r8
 800182e:	d9f3      	bls.n	8001818 <HAL_RCC_ClockConfig+0xac>
 8001830:	2003      	movs	r0, #3
 8001832:	e7a1      	b.n	8001778 <HAL_RCC_ClockConfig+0xc>
 8001834:	2a02      	cmp	r2, #2
 8001836:	d102      	bne.n	800183e <HAL_RCC_ClockConfig+0xd2>
 8001838:	f413 3f00 	tst.w	r3, #131072	; 0x20000
 800183c:	e7e1      	b.n	8001802 <HAL_RCC_ClockConfig+0x96>
 800183e:	b912      	cbnz	r2, 8001846 <HAL_RCC_ClockConfig+0xda>
 8001840:	f013 0f02 	tst.w	r3, #2
 8001844:	e7dd      	b.n	8001802 <HAL_RCC_ClockConfig+0x96>
 8001846:	f413 6f80 	tst.w	r3, #1024	; 0x400
 800184a:	e7da      	b.n	8001802 <HAL_RCC_ClockConfig+0x96>
 800184c:	4a0d      	ldr	r2, [pc, #52]	; (8001884 <HAL_RCC_ClockConfig+0x118>)
 800184e:	68a0      	ldr	r0, [r4, #8]
 8001850:	6893      	ldr	r3, [r2, #8]
 8001852:	f023 03f0 	bic.w	r3, r3, #240	; 0xf0
 8001856:	4303      	orrs	r3, r0
 8001858:	6093      	str	r3, [r2, #8]
 800185a:	e79b      	b.n	8001794 <HAL_RCC_ClockConfig+0x28>
 800185c:	6813      	ldr	r3, [r2, #0]
 800185e:	f023 0307 	bic.w	r3, r3, #7
 8001862:	4333      	orrs	r3, r6
 8001864:	6013      	str	r3, [r2, #0]
 8001866:	6813      	ldr	r3, [r2, #0]
 8001868:	f003 0307 	and.w	r3, r3, #7
 800186c:	42b3      	cmp	r3, r6
 800186e:	d182      	bne.n	8001776 <HAL_RCC_ClockConfig+0xa>
 8001870:	e796      	b.n	80017a0 <HAL_RCC_ClockConfig+0x34>
 8001872:	68ab      	ldr	r3, [r5, #8]
 8001874:	68e2      	ldr	r2, [r4, #12]
 8001876:	f423 63e0 	bic.w	r3, r3, #1792	; 0x700
 800187a:	4313      	orrs	r3, r2
 800187c:	60ab      	str	r3, [r5, #8]
 800187e:	e793      	b.n	80017a8 <HAL_RCC_ClockConfig+0x3c>
 8001880:	40022000 	.word	0x40022000
 8001884:	40021000 	.word	0x40021000
 8001888:	08002ed0 	.word	0x08002ed0
 800188c:	20000000 	.word	0x20000000
 8001890:	20000008 	.word	0x20000008

08001894 <TIM_OC1_SetConfig>:
 8001894:	6a03      	ldr	r3, [r0, #32]
 8001896:	f023 0301 	bic.w	r3, r3, #1
 800189a:	6203      	str	r3, [r0, #32]
 800189c:	6a03      	ldr	r3, [r0, #32]
 800189e:	b570      	push	{r4, r5, r6, lr}
 80018a0:	6845      	ldr	r5, [r0, #4]
 80018a2:	6982      	ldr	r2, [r0, #24]
 80018a4:	680c      	ldr	r4, [r1, #0]
 80018a6:	f422 3280 	bic.w	r2, r2, #65536	; 0x10000
 80018aa:	f022 0273 	bic.w	r2, r2, #115	; 0x73
 80018ae:	4322      	orrs	r2, r4
 80018b0:	688c      	ldr	r4, [r1, #8]
 80018b2:	f023 0302 	bic.w	r3, r3, #2
 80018b6:	4323      	orrs	r3, r4
 80018b8:	4c12      	ldr	r4, [pc, #72]	; (8001904 <TIM_OC1_SetConfig+0x70>)
 80018ba:	42a0      	cmp	r0, r4
 80018bc:	d006      	beq.n	80018cc <TIM_OC1_SetConfig+0x38>
 80018be:	4e12      	ldr	r6, [pc, #72]	; (8001908 <TIM_OC1_SetConfig+0x74>)
 80018c0:	42b0      	cmp	r0, r6
 80018c2:	d003      	beq.n	80018cc <TIM_OC1_SetConfig+0x38>
 80018c4:	f506 6680 	add.w	r6, r6, #1024	; 0x400
 80018c8:	42b0      	cmp	r0, r6
 80018ca:	d114      	bne.n	80018f6 <TIM_OC1_SetConfig+0x62>
 80018cc:	68ce      	ldr	r6, [r1, #12]
 80018ce:	f023 0308 	bic.w	r3, r3, #8
 80018d2:	4333      	orrs	r3, r6
 80018d4:	42a0      	cmp	r0, r4
 80018d6:	f023 0304 	bic.w	r3, r3, #4
 80018da:	d006      	beq.n	80018ea <TIM_OC1_SetConfig+0x56>
 80018dc:	4c0a      	ldr	r4, [pc, #40]	; (8001908 <TIM_OC1_SetConfig+0x74>)
 80018de:	42a0      	cmp	r0, r4
 80018e0:	d003      	beq.n	80018ea <TIM_OC1_SetConfig+0x56>
 80018e2:	f504 6480 	add.w	r4, r4, #1024	; 0x400
 80018e6:	42a0      	cmp	r0, r4
 80018e8:	d105      	bne.n	80018f6 <TIM_OC1_SetConfig+0x62>
 80018ea:	e9d1 4605 	ldrd	r4, r6, [r1, #20]
 80018ee:	f425 7540 	bic.w	r5, r5, #768	; 0x300
 80018f2:	4334      	orrs	r4, r6
 80018f4:	4325      	orrs	r5, r4
 80018f6:	6045      	str	r5, [r0, #4]
 80018f8:	6182      	str	r2, [r0, #24]
 80018fa:	684a      	ldr	r2, [r1, #4]
 80018fc:	6342      	str	r2, [r0, #52]	; 0x34
 80018fe:	6203      	str	r3, [r0, #32]
 8001900:	bd70      	pop	{r4, r5, r6, pc}
 8001902:	bf00      	nop
 8001904:	40012c00 	.word	0x40012c00
 8001908:	40014000 	.word	0x40014000

0800190c <TIM_OC3_SetConfig>:
 800190c:	6a03      	ldr	r3, [r0, #32]
 800190e:	f423 7380 	bic.w	r3, r3, #256	; 0x100
 8001912:	6203      	str	r3, [r0, #32]
 8001914:	6a03      	ldr	r3, [r0, #32]
 8001916:	6842      	ldr	r2, [r0, #4]
 8001918:	b570      	push	{r4, r5, r6, lr}
 800191a:	69c4      	ldr	r4, [r0, #28]
 800191c:	680d      	ldr	r5, [r1, #0]
 800191e:	f424 3480 	bic.w	r4, r4, #65536	; 0x10000
 8001922:	f024 0473 	bic.w	r4, r4, #115	; 0x73
 8001926:	432c      	orrs	r4, r5
 8001928:	688d      	ldr	r5, [r1, #8]
 800192a:	f423 7300 	bic.w	r3, r3, #512	; 0x200
 800192e:	ea43 2305 	orr.w	r3, r3, r5, lsl #8
 8001932:	4d0f      	ldr	r5, [pc, #60]	; (8001970 <TIM_OC3_SetConfig+0x64>)
 8001934:	42a8      	cmp	r0, r5
 8001936:	d10e      	bne.n	8001956 <TIM_OC3_SetConfig+0x4a>
 8001938:	68cd      	ldr	r5, [r1, #12]
 800193a:	f423 6300 	bic.w	r3, r3, #2048	; 0x800
 800193e:	ea43 2305 	orr.w	r3, r3, r5, lsl #8
 8001942:	f423 6380 	bic.w	r3, r3, #1024	; 0x400
 8001946:	e9d1 5605 	ldrd	r5, r6, [r1, #20]
 800194a:	f422 5240 	bic.w	r2, r2, #12288	; 0x3000
 800194e:	4335      	orrs	r5, r6
 8001950:	ea42 1205 	orr.w	r2, r2, r5, lsl #4
 8001954:	e005      	b.n	8001962 <TIM_OC3_SetConfig+0x56>
 8001956:	4d07      	ldr	r5, [pc, #28]	; (8001974 <TIM_OC3_SetConfig+0x68>)
 8001958:	42a8      	cmp	r0, r5
 800195a:	d0f4      	beq.n	8001946 <TIM_OC3_SetConfig+0x3a>
 800195c:	4d06      	ldr	r5, [pc, #24]	; (8001978 <TIM_OC3_SetConfig+0x6c>)
 800195e:	42a8      	cmp	r0, r5
 8001960:	d0f1      	beq.n	8001946 <TIM_OC3_SetConfig+0x3a>
 8001962:	6042      	str	r2, [r0, #4]
 8001964:	684a      	ldr	r2, [r1, #4]
 8001966:	61c4      	str	r4, [r0, #28]
 8001968:	63c2      	str	r2, [r0, #60]	; 0x3c
 800196a:	6203      	str	r3, [r0, #32]
 800196c:	bd70      	pop	{r4, r5, r6, pc}
 800196e:	bf00      	nop
 8001970:	40012c00 	.word	0x40012c00
 8001974:	40014000 	.word	0x40014000
 8001978:	40014400 	.word	0x40014400

0800197c <TIM_OC4_SetConfig>:
 800197c:	6a03      	ldr	r3, [r0, #32]
 800197e:	f423 5380 	bic.w	r3, r3, #4096	; 0x1000
 8001982:	6203      	str	r3, [r0, #32]
 8001984:	6a02      	ldr	r2, [r0, #32]
 8001986:	b530      	push	{r4, r5, lr}
 8001988:	6844      	ldr	r4, [r0, #4]
 800198a:	69c3      	ldr	r3, [r0, #28]
 800198c:	680d      	ldr	r5, [r1, #0]
 800198e:	f023 7380 	bic.w	r3, r3, #16777216	; 0x1000000
 8001992:	f423 43e6 	bic.w	r3, r3, #29440	; 0x7300
 8001996:	ea43 2305 	orr.w	r3, r3, r5, lsl #8
 800199a:	688d      	ldr	r5, [r1, #8]
 800199c:	f422 5200 	bic.w	r2, r2, #8192	; 0x2000
 80019a0:	ea42 3205 	orr.w	r2, r2, r5, lsl #12
 80019a4:	4d0a      	ldr	r5, [pc, #40]	; (80019d0 <TIM_OC4_SetConfig+0x54>)
 80019a6:	42a8      	cmp	r0, r5
 80019a8:	d007      	beq.n	80019ba <TIM_OC4_SetConfig+0x3e>
 80019aa:	f505 55a0 	add.w	r5, r5, #5120	; 0x1400
 80019ae:	42a8      	cmp	r0, r5
 80019b0:	d003      	beq.n	80019ba <TIM_OC4_SetConfig+0x3e>
 80019b2:	f505 6580 	add.w	r5, r5, #1024	; 0x400
 80019b6:	42a8      	cmp	r0, r5
 80019b8:	d104      	bne.n	80019c4 <TIM_OC4_SetConfig+0x48>
 80019ba:	694d      	ldr	r5, [r1, #20]
 80019bc:	f424 4480 	bic.w	r4, r4, #16384	; 0x4000
 80019c0:	ea44 1485 	orr.w	r4, r4, r5, lsl #6
 80019c4:	6044      	str	r4, [r0, #4]
 80019c6:	61c3      	str	r3, [r0, #28]
 80019c8:	684b      	ldr	r3, [r1, #4]
 80019ca:	6403      	str	r3, [r0, #64]	; 0x40
 80019cc:	6202      	str	r2, [r0, #32]
 80019ce:	bd30      	pop	{r4, r5, pc}
 80019d0:	40012c00 	.word	0x40012c00

080019d4 <TIM_OC5_SetConfig>:
 80019d4:	6a03      	ldr	r3, [r0, #32]
 80019d6:	f423 3380 	bic.w	r3, r3, #65536	; 0x10000
 80019da:	6203      	str	r3, [r0, #32]
 80019dc:	6a02      	ldr	r2, [r0, #32]
 80019de:	b530      	push	{r4, r5, lr}
 80019e0:	6844      	ldr	r4, [r0, #4]
 80019e2:	6d43      	ldr	r3, [r0, #84]	; 0x54
 80019e4:	680d      	ldr	r5, [r1, #0]
 80019e6:	f423 3380 	bic.w	r3, r3, #65536	; 0x10000
 80019ea:	f023 0370 	bic.w	r3, r3, #112	; 0x70
 80019ee:	432b      	orrs	r3, r5
 80019f0:	688d      	ldr	r5, [r1, #8]
 80019f2:	f422 3200 	bic.w	r2, r2, #131072	; 0x20000
 80019f6:	ea42 4205 	orr.w	r2, r2, r5, lsl #16
 80019fa:	4d0b      	ldr	r5, [pc, #44]	; (8001a28 <TIM_OC5_SetConfig+0x54>)
 80019fc:	42a8      	cmp	r0, r5
 80019fe:	d007      	beq.n	8001a10 <TIM_OC5_SetConfig+0x3c>
 8001a00:	f505 55a0 	add.w	r5, r5, #5120	; 0x1400
 8001a04:	42a8      	cmp	r0, r5
 8001a06:	d003      	beq.n	8001a10 <TIM_OC5_SetConfig+0x3c>
 8001a08:	f505 6580 	add.w	r5, r5, #1024	; 0x400
 8001a0c:	42a8      	cmp	r0, r5
 8001a0e:	d104      	bne.n	8001a1a <TIM_OC5_SetConfig+0x46>
 8001a10:	694d      	ldr	r5, [r1, #20]
 8001a12:	f424 3480 	bic.w	r4, r4, #65536	; 0x10000
 8001a16:	ea44 2405 	orr.w	r4, r4, r5, lsl #8
 8001a1a:	6044      	str	r4, [r0, #4]
 8001a1c:	6543      	str	r3, [r0, #84]	; 0x54
 8001a1e:	684b      	ldr	r3, [r1, #4]
 8001a20:	6583      	str	r3, [r0, #88]	; 0x58
 8001a22:	6202      	str	r2, [r0, #32]
 8001a24:	bd30      	pop	{r4, r5, pc}
 8001a26:	bf00      	nop
 8001a28:	40012c00 	.word	0x40012c00

08001a2c <TIM_OC6_SetConfig>:
 8001a2c:	6a03      	ldr	r3, [r0, #32]
 8001a2e:	f423 1380 	bic.w	r3, r3, #1048576	; 0x100000
 8001a32:	6203      	str	r3, [r0, #32]
 8001a34:	6a02      	ldr	r2, [r0, #32]
 8001a36:	b530      	push	{r4, r5, lr}
 8001a38:	6844      	ldr	r4, [r0, #4]
 8001a3a:	6d43      	ldr	r3, [r0, #84]	; 0x54
 8001a3c:	680d      	ldr	r5, [r1, #0]
 8001a3e:	f023 7380 	bic.w	r3, r3, #16777216	; 0x1000000
 8001a42:	f423 43e0 	bic.w	r3, r3, #28672	; 0x7000
 8001a46:	ea43 2305 	orr.w	r3, r3, r5, lsl #8
 8001a4a:	688d      	ldr	r5, [r1, #8]
 8001a4c:	f422 1200 	bic.w	r2, r2, #2097152	; 0x200000
 8001a50:	ea42 5205 	orr.w	r2, r2, r5, lsl #20
 8001a54:	4d0a      	ldr	r5, [pc, #40]	; (8001a80 <TIM_OC6_SetConfig+0x54>)
 8001a56:	42a8      	cmp	r0, r5
 8001a58:	d007      	beq.n	8001a6a <TIM_OC6_SetConfig+0x3e>
 8001a5a:	f505 55a0 	add.w	r5, r5, #5120	; 0x1400
 8001a5e:	42a8      	cmp	r0, r5
 8001a60:	d003      	beq.n	8001a6a <TIM_OC6_SetConfig+0x3e>
 8001a62:	f505 6580 	add.w	r5, r5, #1024	; 0x400
 8001a66:	42a8      	cmp	r0, r5
 8001a68:	d104      	bne.n	8001a74 <TIM_OC6_SetConfig+0x48>
 8001a6a:	694d      	ldr	r5, [r1, #20]
 8001a6c:	f424 2480 	bic.w	r4, r4, #262144	; 0x40000
 8001a70:	ea44 2485 	orr.w	r4, r4, r5, lsl #10
 8001a74:	6044      	str	r4, [r0, #4]
 8001a76:	6543      	str	r3, [r0, #84]	; 0x54
 8001a78:	684b      	ldr	r3, [r1, #4]
 8001a7a:	65c3      	str	r3, [r0, #92]	; 0x5c
 8001a7c:	6202      	str	r2, [r0, #32]
 8001a7e:	bd30      	pop	{r4, r5, pc}
 8001a80:	40012c00 	.word	0x40012c00

08001a84 <HAL_TIM_Base_Start_IT>:
 8001a84:	f890 303d 	ldrb.w	r3, [r0, #61]	; 0x3d
 8001a88:	2b01      	cmp	r3, #1
 8001a8a:	d11f      	bne.n	8001acc <HAL_TIM_Base_Start_IT+0x48>
 8001a8c:	2302      	movs	r3, #2
 8001a8e:	f880 303d 	strb.w	r3, [r0, #61]	; 0x3d
 8001a92:	6803      	ldr	r3, [r0, #0]
 8001a94:	68da      	ldr	r2, [r3, #12]
 8001a96:	f042 0201 	orr.w	r2, r2, #1
 8001a9a:	60da      	str	r2, [r3, #12]
 8001a9c:	4a0c      	ldr	r2, [pc, #48]	; (8001ad0 <HAL_TIM_Base_Start_IT+0x4c>)
 8001a9e:	4293      	cmp	r3, r2
 8001aa0:	d006      	beq.n	8001ab0 <HAL_TIM_Base_Start_IT+0x2c>
 8001aa2:	f1b3 4f80 	cmp.w	r3, #1073741824	; 0x40000000
 8001aa6:	d003      	beq.n	8001ab0 <HAL_TIM_Base_Start_IT+0x2c>
 8001aa8:	f502 52a0 	add.w	r2, r2, #5120	; 0x1400
 8001aac:	4293      	cmp	r3, r2
 8001aae:	d107      	bne.n	8001ac0 <HAL_TIM_Base_Start_IT+0x3c>
 8001ab0:	6899      	ldr	r1, [r3, #8]
 8001ab2:	4a08      	ldr	r2, [pc, #32]	; (8001ad4 <HAL_TIM_Base_Start_IT+0x50>)
 8001ab4:	400a      	ands	r2, r1
 8001ab6:	2a06      	cmp	r2, #6
 8001ab8:	d006      	beq.n	8001ac8 <HAL_TIM_Base_Start_IT+0x44>
 8001aba:	f5b2 3f80 	cmp.w	r2, #65536	; 0x10000
 8001abe:	d003      	beq.n	8001ac8 <HAL_TIM_Base_Start_IT+0x44>
 8001ac0:	681a      	ldr	r2, [r3, #0]
 8001ac2:	f042 0201 	orr.w	r2, r2, #1
 8001ac6:	601a      	str	r2, [r3, #0]
 8001ac8:	2000      	movs	r0, #0
 8001aca:	4770      	bx	lr
 8001acc:	2001      	movs	r0, #1
 8001ace:	4770      	bx	lr
 8001ad0:	40012c00 	.word	0x40012c00
 8001ad4:	00010007 	.word	0x00010007

08001ad8 <HAL_TIM_PWM_MspInit>:
 8001ad8:	4770      	bx	lr

08001ada <HAL_TIM_OC_DelayElapsedCallback>:
 8001ada:	4770      	bx	lr

08001adc <HAL_TIM_IC_CaptureCallback>:
 8001adc:	4770      	bx	lr

08001ade <HAL_TIM_PWM_PulseFinishedCallback>:
 8001ade:	4770      	bx	lr

08001ae0 <HAL_TIM_TriggerCallback>:
 8001ae0:	4770      	bx	lr

08001ae2 <HAL_TIM_IRQHandler>:
 8001ae2:	6803      	ldr	r3, [r0, #0]
 8001ae4:	691a      	ldr	r2, [r3, #16]
 8001ae6:	0791      	lsls	r1, r2, #30
 8001ae8:	b510      	push	{r4, lr}
 8001aea:	4604      	mov	r4, r0
 8001aec:	d50f      	bpl.n	8001b0e <HAL_TIM_IRQHandler+0x2c>
 8001aee:	68da      	ldr	r2, [r3, #12]
 8001af0:	0792      	lsls	r2, r2, #30
 8001af2:	d50c      	bpl.n	8001b0e <HAL_TIM_IRQHandler+0x2c>
 8001af4:	f06f 0202 	mvn.w	r2, #2
 8001af8:	611a      	str	r2, [r3, #16]
 8001afa:	699b      	ldr	r3, [r3, #24]
 8001afc:	2201      	movs	r2, #1
 8001afe:	0799      	lsls	r1, r3, #30
 8001b00:	7702      	strb	r2, [r0, #28]
 8001b02:	f000 8085 	beq.w	8001c10 <HAL_TIM_IRQHandler+0x12e>
 8001b06:	f7ff ffe9 	bl	8001adc <HAL_TIM_IC_CaptureCallback>
 8001b0a:	2300      	movs	r3, #0
 8001b0c:	7723      	strb	r3, [r4, #28]
 8001b0e:	6823      	ldr	r3, [r4, #0]
 8001b10:	691a      	ldr	r2, [r3, #16]
 8001b12:	0752      	lsls	r2, r2, #29
 8001b14:	d510      	bpl.n	8001b38 <HAL_TIM_IRQHandler+0x56>
 8001b16:	68da      	ldr	r2, [r3, #12]
 8001b18:	0750      	lsls	r0, r2, #29
 8001b1a:	d50d      	bpl.n	8001b38 <HAL_TIM_IRQHandler+0x56>
 8001b1c:	f06f 0204 	mvn.w	r2, #4
 8001b20:	611a      	str	r2, [r3, #16]
 8001b22:	699b      	ldr	r3, [r3, #24]
 8001b24:	2202      	movs	r2, #2
 8001b26:	f413 7f40 	tst.w	r3, #768	; 0x300
 8001b2a:	7722      	strb	r2, [r4, #28]
 8001b2c:	4620      	mov	r0, r4
 8001b2e:	d075      	beq.n	8001c1c <HAL_TIM_IRQHandler+0x13a>
 8001b30:	f7ff ffd4 	bl	8001adc <HAL_TIM_IC_CaptureCallback>
 8001b34:	2300      	movs	r3, #0
 8001b36:	7723      	strb	r3, [r4, #28]
 8001b38:	6823      	ldr	r3, [r4, #0]
 8001b3a:	691a      	ldr	r2, [r3, #16]
 8001b3c:	0711      	lsls	r1, r2, #28
 8001b3e:	d50f      	bpl.n	8001b60 <HAL_TIM_IRQHandler+0x7e>
 8001b40:	68da      	ldr	r2, [r3, #12]
 8001b42:	0712      	lsls	r2, r2, #28
 8001b44:	d50c      	bpl.n	8001b60 <HAL_TIM_IRQHandler+0x7e>
 8001b46:	f06f 0208 	mvn.w	r2, #8
 8001b4a:	611a      	str	r2, [r3, #16]
 8001b4c:	69db      	ldr	r3, [r3, #28]
 8001b4e:	2204      	movs	r2, #4
 8001b50:	079b      	lsls	r3, r3, #30
 8001b52:	7722      	strb	r2, [r4, #28]
 8001b54:	4620      	mov	r0, r4
 8001b56:	d067      	beq.n	8001c28 <HAL_TIM_IRQHandler+0x146>
 8001b58:	f7ff ffc0 	bl	8001adc <HAL_TIM_IC_CaptureCallback>
 8001b5c:	2300      	movs	r3, #0
 8001b5e:	7723      	strb	r3, [r4, #28]
 8001b60:	6823      	ldr	r3, [r4, #0]
 8001b62:	691a      	ldr	r2, [r3, #16]
 8001b64:	06d0      	lsls	r0, r2, #27
 8001b66:	d510      	bpl.n	8001b8a <HAL_TIM_IRQHandler+0xa8>
 8001b68:	68da      	ldr	r2, [r3, #12]
 8001b6a:	06d1      	lsls	r1, r2, #27
 8001b6c:	d50d      	bpl.n	8001b8a <HAL_TIM_IRQHandler+0xa8>
 8001b6e:	f06f 0210 	mvn.w	r2, #16
 8001b72:	611a      	str	r2, [r3, #16]
 8001b74:	69db      	ldr	r3, [r3, #28]
 8001b76:	2208      	movs	r2, #8
 8001b78:	f413 7f40 	tst.w	r3, #768	; 0x300
 8001b7c:	7722      	strb	r2, [r4, #28]
 8001b7e:	4620      	mov	r0, r4
 8001b80:	d058      	beq.n	8001c34 <HAL_TIM_IRQHandler+0x152>
 8001b82:	f7ff ffab 	bl	8001adc <HAL_TIM_IC_CaptureCallback>
 8001b86:	2300      	movs	r3, #0
 8001b88:	7723      	strb	r3, [r4, #28]
 8001b8a:	6823      	ldr	r3, [r4, #0]
 8001b8c:	691a      	ldr	r2, [r3, #16]
 8001b8e:	07d2      	lsls	r2, r2, #31
 8001b90:	d508      	bpl.n	8001ba4 <HAL_TIM_IRQHandler+0xc2>
 8001b92:	68da      	ldr	r2, [r3, #12]
 8001b94:	07d0      	lsls	r0, r2, #31
 8001b96:	d505      	bpl.n	8001ba4 <HAL_TIM_IRQHandler+0xc2>
 8001b98:	f06f 0201 	mvn.w	r2, #1
 8001b9c:	611a      	str	r2, [r3, #16]
 8001b9e:	4620      	mov	r0, r4
 8001ba0:	f7fe ffe2 	bl	8000b68 <HAL_TIM_PeriodElapsedCallback>
 8001ba4:	6823      	ldr	r3, [r4, #0]
 8001ba6:	691a      	ldr	r2, [r3, #16]
 8001ba8:	0611      	lsls	r1, r2, #24
 8001baa:	d508      	bpl.n	8001bbe <HAL_TIM_IRQHandler+0xdc>
 8001bac:	68da      	ldr	r2, [r3, #12]
 8001bae:	0612      	lsls	r2, r2, #24
 8001bb0:	d505      	bpl.n	8001bbe <HAL_TIM_IRQHandler+0xdc>
 8001bb2:	f06f 0280 	mvn.w	r2, #128	; 0x80
 8001bb6:	611a      	str	r2, [r3, #16]
 8001bb8:	4620      	mov	r0, r4
 8001bba:	f000 fc02 	bl	80023c2 <HAL_TIMEx_BreakCallback>
 8001bbe:	6823      	ldr	r3, [r4, #0]
 8001bc0:	691a      	ldr	r2, [r3, #16]
 8001bc2:	05d0      	lsls	r0, r2, #23
 8001bc4:	d508      	bpl.n	8001bd8 <HAL_TIM_IRQHandler+0xf6>
 8001bc6:	68da      	ldr	r2, [r3, #12]
 8001bc8:	0611      	lsls	r1, r2, #24
 8001bca:	d505      	bpl.n	8001bd8 <HAL_TIM_IRQHandler+0xf6>
 8001bcc:	f46f 7280 	mvn.w	r2, #256	; 0x100
 8001bd0:	611a      	str	r2, [r3, #16]
 8001bd2:	4620      	mov	r0, r4
 8001bd4:	f000 fbf6 	bl	80023c4 <HAL_TIMEx_Break2Callback>
 8001bd8:	6823      	ldr	r3, [r4, #0]
 8001bda:	691a      	ldr	r2, [r3, #16]
 8001bdc:	0652      	lsls	r2, r2, #25
 8001bde:	d508      	bpl.n	8001bf2 <HAL_TIM_IRQHandler+0x110>
 8001be0:	68da      	ldr	r2, [r3, #12]
 8001be2:	0650      	lsls	r0, r2, #25
 8001be4:	d505      	bpl.n	8001bf2 <HAL_TIM_IRQHandler+0x110>
 8001be6:	f06f 0240 	mvn.w	r2, #64	; 0x40
 8001bea:	611a      	str	r2, [r3, #16]
 8001bec:	4620      	mov	r0, r4
 8001bee:	f7ff ff77 	bl	8001ae0 <HAL_TIM_TriggerCallback>
 8001bf2:	6823      	ldr	r3, [r4, #0]
 8001bf4:	691a      	ldr	r2, [r3, #16]
 8001bf6:	0691      	lsls	r1, r2, #26
 8001bf8:	d522      	bpl.n	8001c40 <HAL_TIM_IRQHandler+0x15e>
 8001bfa:	68da      	ldr	r2, [r3, #12]
 8001bfc:	0692      	lsls	r2, r2, #26
 8001bfe:	d51f      	bpl.n	8001c40 <HAL_TIM_IRQHandler+0x15e>
 8001c00:	f06f 0220 	mvn.w	r2, #32
 8001c04:	4620      	mov	r0, r4
 8001c06:	611a      	str	r2, [r3, #16]
 8001c08:	e8bd 4010 	ldmia.w	sp!, {r4, lr}
 8001c0c:	f000 bbd8 	b.w	80023c0 <HAL_TIMEx_CommutCallback>
 8001c10:	f7ff ff63 	bl	8001ada <HAL_TIM_OC_DelayElapsedCallback>
 8001c14:	4620      	mov	r0, r4
 8001c16:	f7ff ff62 	bl	8001ade <HAL_TIM_PWM_PulseFinishedCallback>
 8001c1a:	e776      	b.n	8001b0a <HAL_TIM_IRQHandler+0x28>
 8001c1c:	f7ff ff5d 	bl	8001ada <HAL_TIM_OC_DelayElapsedCallback>
 8001c20:	4620      	mov	r0, r4
 8001c22:	f7ff ff5c 	bl	8001ade <HAL_TIM_PWM_PulseFinishedCallback>
 8001c26:	e785      	b.n	8001b34 <HAL_TIM_IRQHandler+0x52>
 8001c28:	f7ff ff57 	bl	8001ada <HAL_TIM_OC_DelayElapsedCallback>
 8001c2c:	4620      	mov	r0, r4
 8001c2e:	f7ff ff56 	bl	8001ade <HAL_TIM_PWM_PulseFinishedCallback>
 8001c32:	e793      	b.n	8001b5c <HAL_TIM_IRQHandler+0x7a>
 8001c34:	f7ff ff51 	bl	8001ada <HAL_TIM_OC_DelayElapsedCallback>
 8001c38:	4620      	mov	r0, r4
 8001c3a:	f7ff ff50 	bl	8001ade <HAL_TIM_PWM_PulseFinishedCallback>
 8001c3e:	e7a2      	b.n	8001b86 <HAL_TIM_IRQHandler+0xa4>
 8001c40:	bd10      	pop	{r4, pc}
	...

08001c44 <TIM_Base_SetConfig>:
 8001c44:	4a1a      	ldr	r2, [pc, #104]	; (8001cb0 <TIM_Base_SetConfig+0x6c>)
 8001c46:	6803      	ldr	r3, [r0, #0]
 8001c48:	4290      	cmp	r0, r2
 8001c4a:	b510      	push	{r4, lr}
 8001c4c:	d002      	beq.n	8001c54 <TIM_Base_SetConfig+0x10>
 8001c4e:	f1b0 4f80 	cmp.w	r0, #1073741824	; 0x40000000
 8001c52:	d109      	bne.n	8001c68 <TIM_Base_SetConfig+0x24>
 8001c54:	684c      	ldr	r4, [r1, #4]
 8001c56:	f023 0370 	bic.w	r3, r3, #112	; 0x70
 8001c5a:	4290      	cmp	r0, r2
 8001c5c:	ea43 0304 	orr.w	r3, r3, r4
 8001c60:	d009      	beq.n	8001c76 <TIM_Base_SetConfig+0x32>
 8001c62:	f1b0 4f80 	cmp.w	r0, #1073741824	; 0x40000000
 8001c66:	d006      	beq.n	8001c76 <TIM_Base_SetConfig+0x32>
 8001c68:	4a12      	ldr	r2, [pc, #72]	; (8001cb4 <TIM_Base_SetConfig+0x70>)
 8001c6a:	4290      	cmp	r0, r2
 8001c6c:	d003      	beq.n	8001c76 <TIM_Base_SetConfig+0x32>
 8001c6e:	f502 6280 	add.w	r2, r2, #1024	; 0x400
 8001c72:	4290      	cmp	r0, r2
 8001c74:	d103      	bne.n	8001c7e <TIM_Base_SetConfig+0x3a>
 8001c76:	68ca      	ldr	r2, [r1, #12]
 8001c78:	f423 7340 	bic.w	r3, r3, #768	; 0x300
 8001c7c:	4313      	orrs	r3, r2
 8001c7e:	694a      	ldr	r2, [r1, #20]
 8001c80:	f023 0380 	bic.w	r3, r3, #128	; 0x80
 8001c84:	4313      	orrs	r3, r2
 8001c86:	6003      	str	r3, [r0, #0]
 8001c88:	688b      	ldr	r3, [r1, #8]
 8001c8a:	62c3      	str	r3, [r0, #44]	; 0x2c
 8001c8c:	680b      	ldr	r3, [r1, #0]
 8001c8e:	6283      	str	r3, [r0, #40]	; 0x28
 8001c90:	4b07      	ldr	r3, [pc, #28]	; (8001cb0 <TIM_Base_SetConfig+0x6c>)
 8001c92:	4298      	cmp	r0, r3
 8001c94:	d007      	beq.n	8001ca6 <TIM_Base_SetConfig+0x62>
 8001c96:	f503 53a0 	add.w	r3, r3, #5120	; 0x1400
 8001c9a:	4298      	cmp	r0, r3
 8001c9c:	d003      	beq.n	8001ca6 <TIM_Base_SetConfig+0x62>
 8001c9e:	f503 6380 	add.w	r3, r3, #1024	; 0x400
 8001ca2:	4298      	cmp	r0, r3
 8001ca4:	d101      	bne.n	8001caa <TIM_Base_SetConfig+0x66>
 8001ca6:	690b      	ldr	r3, [r1, #16]
 8001ca8:	6303      	str	r3, [r0, #48]	; 0x30
 8001caa:	2301      	movs	r3, #1
 8001cac:	6143      	str	r3, [r0, #20]
 8001cae:	bd10      	pop	{r4, pc}
 8001cb0:	40012c00 	.word	0x40012c00
 8001cb4:	40014000 	.word	0x40014000

08001cb8 <HAL_TIM_Base_Init>:
 8001cb8:	b510      	push	{r4, lr}
 8001cba:	4604      	mov	r4, r0
 8001cbc:	b350      	cbz	r0, 8001d14 <HAL_TIM_Base_Init+0x5c>
 8001cbe:	f890 303d 	ldrb.w	r3, [r0, #61]	; 0x3d
 8001cc2:	f003 02ff 	and.w	r2, r3, #255	; 0xff
 8001cc6:	b91b      	cbnz	r3, 8001cd0 <HAL_TIM_Base_Init+0x18>
 8001cc8:	f880 203c 	strb.w	r2, [r0, #60]	; 0x3c
 8001ccc:	f7fe ff80 	bl	8000bd0 <HAL_TIM_Base_MspInit>
 8001cd0:	2302      	movs	r3, #2
 8001cd2:	f884 303d 	strb.w	r3, [r4, #61]	; 0x3d
 8001cd6:	6820      	ldr	r0, [r4, #0]
 8001cd8:	1d21      	adds	r1, r4, #4
 8001cda:	f7ff ffb3 	bl	8001c44 <TIM_Base_SetConfig>
 8001cde:	2301      	movs	r3, #1
 8001ce0:	f884 3048 	strb.w	r3, [r4, #72]	; 0x48
 8001ce4:	2000      	movs	r0, #0
 8001ce6:	f884 303e 	strb.w	r3, [r4, #62]	; 0x3e
 8001cea:	f884 303f 	strb.w	r3, [r4, #63]	; 0x3f
 8001cee:	f884 3040 	strb.w	r3, [r4, #64]	; 0x40
 8001cf2:	f884 3041 	strb.w	r3, [r4, #65]	; 0x41
 8001cf6:	f884 3042 	strb.w	r3, [r4, #66]	; 0x42
 8001cfa:	f884 3043 	strb.w	r3, [r4, #67]	; 0x43
 8001cfe:	f884 3044 	strb.w	r3, [r4, #68]	; 0x44
 8001d02:	f884 3045 	strb.w	r3, [r4, #69]	; 0x45
 8001d06:	f884 3046 	strb.w	r3, [r4, #70]	; 0x46
 8001d0a:	f884 3047 	strb.w	r3, [r4, #71]	; 0x47
 8001d0e:	f884 303d 	strb.w	r3, [r4, #61]	; 0x3d
 8001d12:	bd10      	pop	{r4, pc}
 8001d14:	2001      	movs	r0, #1
 8001d16:	e7fc      	b.n	8001d12 <HAL_TIM_Base_Init+0x5a>

08001d18 <HAL_TIM_PWM_Init>:
 8001d18:	b510      	push	{r4, lr}
 8001d1a:	4604      	mov	r4, r0
 8001d1c:	b350      	cbz	r0, 8001d74 <HAL_TIM_PWM_Init+0x5c>
 8001d1e:	f890 303d 	ldrb.w	r3, [r0, #61]	; 0x3d
 8001d22:	f003 02ff 	and.w	r2, r3, #255	; 0xff
 8001d26:	b91b      	cbnz	r3, 8001d30 <HAL_TIM_PWM_Init+0x18>
 8001d28:	f880 203c 	strb.w	r2, [r0, #60]	; 0x3c
 8001d2c:	f7ff fed4 	bl	8001ad8 <HAL_TIM_PWM_MspInit>
 8001d30:	2302      	movs	r3, #2
 8001d32:	f884 303d 	strb.w	r3, [r4, #61]	; 0x3d
 8001d36:	6820      	ldr	r0, [r4, #0]
 8001d38:	1d21      	adds	r1, r4, #4
 8001d3a:	f7ff ff83 	bl	8001c44 <TIM_Base_SetConfig>
 8001d3e:	2301      	movs	r3, #1
 8001d40:	f884 3048 	strb.w	r3, [r4, #72]	; 0x48
 8001d44:	2000      	movs	r0, #0
 8001d46:	f884 303e 	strb.w	r3, [r4, #62]	; 0x3e
 8001d4a:	f884 303f 	strb.w	r3, [r4, #63]	; 0x3f
 8001d4e:	f884 3040 	strb.w	r3, [r4, #64]	; 0x40
 8001d52:	f884 3041 	strb.w	r3, [r4, #65]	; 0x41
 8001d56:	f884 3042 	strb.w	r3, [r4, #66]	; 0x42
 8001d5a:	f884 3043 	strb.w	r3, [r4, #67]	; 0x43
 8001d5e:	f884 3044 	strb.w	r3, [r4, #68]	; 0x44
 8001d62:	f884 3045 	strb.w	r3, [r4, #69]	; 0x45
 8001d66:	f884 3046 	strb.w	r3, [r4, #70]	; 0x46
 8001d6a:	f884 3047 	strb.w	r3, [r4, #71]	; 0x47
 8001d6e:	f884 303d 	strb.w	r3, [r4, #61]	; 0x3d
 8001d72:	bd10      	pop	{r4, pc}
 8001d74:	2001      	movs	r0, #1
 8001d76:	e7fc      	b.n	8001d72 <HAL_TIM_PWM_Init+0x5a>

08001d78 <TIM_OC2_SetConfig>:
 8001d78:	6a03      	ldr	r3, [r0, #32]
 8001d7a:	f023 0310 	bic.w	r3, r3, #16
 8001d7e:	6203      	str	r3, [r0, #32]
 8001d80:	6a03      	ldr	r3, [r0, #32]
 8001d82:	6842      	ldr	r2, [r0, #4]
 8001d84:	b570      	push	{r4, r5, r6, lr}
 8001d86:	6984      	ldr	r4, [r0, #24]
 8001d88:	680d      	ldr	r5, [r1, #0]
 8001d8a:	f024 7480 	bic.w	r4, r4, #16777216	; 0x1000000
 8001d8e:	f424 44e6 	bic.w	r4, r4, #29440	; 0x7300
 8001d92:	ea44 2405 	orr.w	r4, r4, r5, lsl #8
 8001d96:	688d      	ldr	r5, [r1, #8]
 8001d98:	f023 0320 	bic.w	r3, r3, #32
 8001d9c:	ea43 1305 	orr.w	r3, r3, r5, lsl #4
 8001da0:	4d0e      	ldr	r5, [pc, #56]	; (8001ddc <TIM_OC2_SetConfig+0x64>)
 8001da2:	42a8      	cmp	r0, r5
 8001da4:	d10e      	bne.n	8001dc4 <TIM_OC2_SetConfig+0x4c>
 8001da6:	68cd      	ldr	r5, [r1, #12]
 8001da8:	f023 0380 	bic.w	r3, r3, #128	; 0x80
 8001dac:	ea43 1305 	orr.w	r3, r3, r5, lsl #4
 8001db0:	f023 0340 	bic.w	r3, r3, #64	; 0x40
 8001db4:	e9d1 5605 	ldrd	r5, r6, [r1, #20]
 8001db8:	f422 6240 	bic.w	r2, r2, #3072	; 0xc00
 8001dbc:	4335      	orrs	r5, r6
 8001dbe:	ea42 0285 	orr.w	r2, r2, r5, lsl #2
 8001dc2:	e005      	b.n	8001dd0 <TIM_OC2_SetConfig+0x58>
 8001dc4:	4d06      	ldr	r5, [pc, #24]	; (8001de0 <TIM_OC2_SetConfig+0x68>)
 8001dc6:	42a8      	cmp	r0, r5
 8001dc8:	d0f4      	beq.n	8001db4 <TIM_OC2_SetConfig+0x3c>
 8001dca:	4d06      	ldr	r5, [pc, #24]	; (8001de4 <TIM_OC2_SetConfig+0x6c>)
 8001dcc:	42a8      	cmp	r0, r5
 8001dce:	d0f1      	beq.n	8001db4 <TIM_OC2_SetConfig+0x3c>
 8001dd0:	6042      	str	r2, [r0, #4]
 8001dd2:	684a      	ldr	r2, [r1, #4]
 8001dd4:	6184      	str	r4, [r0, #24]
 8001dd6:	6382      	str	r2, [r0, #56]	; 0x38
 8001dd8:	6203      	str	r3, [r0, #32]
 8001dda:	bd70      	pop	{r4, r5, r6, pc}
 8001ddc:	40012c00 	.word	0x40012c00
 8001de0:	40014000 	.word	0x40014000
 8001de4:	40014400 	.word	0x40014400

08001de8 <HAL_TIM_PWM_ConfigChannel>:
 8001de8:	b538      	push	{r3, r4, r5, lr}
 8001dea:	f890 303c 	ldrb.w	r3, [r0, #60]	; 0x3c
 8001dee:	2b01      	cmp	r3, #1
 8001df0:	4604      	mov	r4, r0
 8001df2:	d078      	beq.n	8001ee6 <HAL_TIM_PWM_ConfigChannel+0xfe>
 8001df4:	2301      	movs	r3, #1
 8001df6:	2a08      	cmp	r2, #8
 8001df8:	f880 303c 	strb.w	r3, [r0, #60]	; 0x3c
 8001dfc:	d040      	beq.n	8001e80 <HAL_TIM_PWM_ConfigChannel+0x98>
 8001dfe:	d806      	bhi.n	8001e0e <HAL_TIM_PWM_ConfigChannel+0x26>
 8001e00:	b1e2      	cbz	r2, 8001e3c <HAL_TIM_PWM_ConfigChannel+0x54>
 8001e02:	2a04      	cmp	r2, #4
 8001e04:	d02b      	beq.n	8001e5e <HAL_TIM_PWM_ConfigChannel+0x76>
 8001e06:	2000      	movs	r0, #0
 8001e08:	f884 003c 	strb.w	r0, [r4, #60]	; 0x3c
 8001e0c:	bd38      	pop	{r3, r4, r5, pc}
 8001e0e:	2a10      	cmp	r2, #16
 8001e10:	d047      	beq.n	8001ea2 <HAL_TIM_PWM_ConfigChannel+0xba>
 8001e12:	2a14      	cmp	r2, #20
 8001e14:	d056      	beq.n	8001ec4 <HAL_TIM_PWM_ConfigChannel+0xdc>
 8001e16:	2a0c      	cmp	r2, #12
 8001e18:	d1f5      	bne.n	8001e06 <HAL_TIM_PWM_ConfigChannel+0x1e>
 8001e1a:	6800      	ldr	r0, [r0, #0]
 8001e1c:	f7ff fdae 	bl	800197c <TIM_OC4_SetConfig>
 8001e20:	6823      	ldr	r3, [r4, #0]
 8001e22:	6909      	ldr	r1, [r1, #16]
 8001e24:	69da      	ldr	r2, [r3, #28]
 8001e26:	f442 6200 	orr.w	r2, r2, #2048	; 0x800
 8001e2a:	61da      	str	r2, [r3, #28]
 8001e2c:	69da      	ldr	r2, [r3, #28]
 8001e2e:	f422 6280 	bic.w	r2, r2, #1024	; 0x400
 8001e32:	61da      	str	r2, [r3, #28]
 8001e34:	69da      	ldr	r2, [r3, #28]
 8001e36:	ea42 2201 	orr.w	r2, r2, r1, lsl #8
 8001e3a:	e030      	b.n	8001e9e <HAL_TIM_PWM_ConfigChannel+0xb6>
 8001e3c:	6800      	ldr	r0, [r0, #0]
 8001e3e:	f7ff fd29 	bl	8001894 <TIM_OC1_SetConfig>
 8001e42:	6823      	ldr	r3, [r4, #0]
 8001e44:	6909      	ldr	r1, [r1, #16]
 8001e46:	699a      	ldr	r2, [r3, #24]
 8001e48:	f042 0208 	orr.w	r2, r2, #8
 8001e4c:	619a      	str	r2, [r3, #24]
 8001e4e:	699a      	ldr	r2, [r3, #24]
 8001e50:	f022 0204 	bic.w	r2, r2, #4
 8001e54:	619a      	str	r2, [r3, #24]
 8001e56:	699a      	ldr	r2, [r3, #24]
 8001e58:	430a      	orrs	r2, r1
 8001e5a:	619a      	str	r2, [r3, #24]
 8001e5c:	e7d3      	b.n	8001e06 <HAL_TIM_PWM_ConfigChannel+0x1e>
 8001e5e:	6800      	ldr	r0, [r0, #0]
 8001e60:	f7ff ff8a 	bl	8001d78 <TIM_OC2_SetConfig>
 8001e64:	6823      	ldr	r3, [r4, #0]
 8001e66:	6909      	ldr	r1, [r1, #16]
 8001e68:	699a      	ldr	r2, [r3, #24]
 8001e6a:	f442 6200 	orr.w	r2, r2, #2048	; 0x800
 8001e6e:	619a      	str	r2, [r3, #24]
 8001e70:	699a      	ldr	r2, [r3, #24]
 8001e72:	f422 6280 	bic.w	r2, r2, #1024	; 0x400
 8001e76:	619a      	str	r2, [r3, #24]
 8001e78:	699a      	ldr	r2, [r3, #24]
 8001e7a:	ea42 2201 	orr.w	r2, r2, r1, lsl #8
 8001e7e:	e7ec      	b.n	8001e5a <HAL_TIM_PWM_ConfigChannel+0x72>
 8001e80:	6800      	ldr	r0, [r0, #0]
 8001e82:	f7ff fd43 	bl	800190c <TIM_OC3_SetConfig>
 8001e86:	6823      	ldr	r3, [r4, #0]
 8001e88:	6909      	ldr	r1, [r1, #16]
 8001e8a:	69da      	ldr	r2, [r3, #28]
 8001e8c:	f042 0208 	orr.w	r2, r2, #8
 8001e90:	61da      	str	r2, [r3, #28]
 8001e92:	69da      	ldr	r2, [r3, #28]
 8001e94:	f022 0204 	bic.w	r2, r2, #4
 8001e98:	61da      	str	r2, [r3, #28]
 8001e9a:	69da      	ldr	r2, [r3, #28]
 8001e9c:	430a      	orrs	r2, r1
 8001e9e:	61da      	str	r2, [r3, #28]
 8001ea0:	e7b1      	b.n	8001e06 <HAL_TIM_PWM_ConfigChannel+0x1e>
 8001ea2:	6800      	ldr	r0, [r0, #0]
 8001ea4:	f7ff fd96 	bl	80019d4 <TIM_OC5_SetConfig>
 8001ea8:	6823      	ldr	r3, [r4, #0]
 8001eaa:	6909      	ldr	r1, [r1, #16]
 8001eac:	6d5a      	ldr	r2, [r3, #84]	; 0x54
 8001eae:	f042 0208 	orr.w	r2, r2, #8
 8001eb2:	655a      	str	r2, [r3, #84]	; 0x54
 8001eb4:	6d5a      	ldr	r2, [r3, #84]	; 0x54
 8001eb6:	f022 0204 	bic.w	r2, r2, #4
 8001eba:	655a      	str	r2, [r3, #84]	; 0x54
 8001ebc:	6d5a      	ldr	r2, [r3, #84]	; 0x54
 8001ebe:	430a      	orrs	r2, r1
 8001ec0:	655a      	str	r2, [r3, #84]	; 0x54
 8001ec2:	e7a0      	b.n	8001e06 <HAL_TIM_PWM_ConfigChannel+0x1e>
 8001ec4:	6800      	ldr	r0, [r0, #0]
 8001ec6:	f7ff fdb1 	bl	8001a2c <TIM_OC6_SetConfig>
 8001eca:	6823      	ldr	r3, [r4, #0]
 8001ecc:	6909      	ldr	r1, [r1, #16]
 8001ece:	6d5a      	ldr	r2, [r3, #84]	; 0x54
 8001ed0:	f442 6200 	orr.w	r2, r2, #2048	; 0x800
 8001ed4:	655a      	str	r2, [r3, #84]	; 0x54
 8001ed6:	6d5a      	ldr	r2, [r3, #84]	; 0x54
 8001ed8:	f422 6280 	bic.w	r2, r2, #1024	; 0x400
 8001edc:	655a      	str	r2, [r3, #84]	; 0x54
 8001ede:	6d5a      	ldr	r2, [r3, #84]	; 0x54
 8001ee0:	ea42 2201 	orr.w	r2, r2, r1, lsl #8
 8001ee4:	e7ec      	b.n	8001ec0 <HAL_TIM_PWM_ConfigChannel+0xd8>
 8001ee6:	2002      	movs	r0, #2
 8001ee8:	e790      	b.n	8001e0c <HAL_TIM_PWM_ConfigChannel+0x24>

08001eea <TIM_ETR_SetConfig>:
 8001eea:	b510      	push	{r4, lr}
 8001eec:	6884      	ldr	r4, [r0, #8]
 8001eee:	430a      	orrs	r2, r1
 8001ef0:	f424 447f 	bic.w	r4, r4, #65280	; 0xff00
 8001ef4:	ea42 2303 	orr.w	r3, r2, r3, lsl #8
 8001ef8:	4323      	orrs	r3, r4
 8001efa:	6083      	str	r3, [r0, #8]
 8001efc:	bd10      	pop	{r4, pc}
	...

08001f00 <HAL_TIM_ConfigClockSource>:
 8001f00:	f890 303c 	ldrb.w	r3, [r0, #60]	; 0x3c
 8001f04:	2b01      	cmp	r3, #1
 8001f06:	b570      	push	{r4, r5, r6, lr}
 8001f08:	4604      	mov	r4, r0
 8001f0a:	f04f 0002 	mov.w	r0, #2
 8001f0e:	d017      	beq.n	8001f40 <HAL_TIM_ConfigClockSource+0x40>
 8001f10:	f884 003d 	strb.w	r0, [r4, #61]	; 0x3d
 8001f14:	6820      	ldr	r0, [r4, #0]
 8001f16:	2301      	movs	r3, #1
 8001f18:	f884 303c 	strb.w	r3, [r4, #60]	; 0x3c
 8001f1c:	6882      	ldr	r2, [r0, #8]
 8001f1e:	4b41      	ldr	r3, [pc, #260]	; (8002024 <HAL_TIM_ConfigClockSource+0x124>)
 8001f20:	4013      	ands	r3, r2
 8001f22:	6083      	str	r3, [r0, #8]
 8001f24:	680b      	ldr	r3, [r1, #0]
 8001f26:	2b40      	cmp	r3, #64	; 0x40
 8001f28:	d065      	beq.n	8001ff6 <HAL_TIM_ConfigClockSource+0xf6>
 8001f2a:	d815      	bhi.n	8001f58 <HAL_TIM_ConfigClockSource+0x58>
 8001f2c:	2b10      	cmp	r3, #16
 8001f2e:	d00c      	beq.n	8001f4a <HAL_TIM_ConfigClockSource+0x4a>
 8001f30:	d807      	bhi.n	8001f42 <HAL_TIM_ConfigClockSource+0x42>
 8001f32:	b153      	cbz	r3, 8001f4a <HAL_TIM_ConfigClockSource+0x4a>
 8001f34:	2301      	movs	r3, #1
 8001f36:	2000      	movs	r0, #0
 8001f38:	f884 303d 	strb.w	r3, [r4, #61]	; 0x3d
 8001f3c:	f884 003c 	strb.w	r0, [r4, #60]	; 0x3c
 8001f40:	bd70      	pop	{r4, r5, r6, pc}
 8001f42:	2b20      	cmp	r3, #32
 8001f44:	d001      	beq.n	8001f4a <HAL_TIM_ConfigClockSource+0x4a>
 8001f46:	2b30      	cmp	r3, #48	; 0x30
 8001f48:	d1f4      	bne.n	8001f34 <HAL_TIM_ConfigClockSource+0x34>
 8001f4a:	6882      	ldr	r2, [r0, #8]
 8001f4c:	f043 0307 	orr.w	r3, r3, #7
 8001f50:	f022 0270 	bic.w	r2, r2, #112	; 0x70
 8001f54:	4313      	orrs	r3, r2
 8001f56:	e01a      	b.n	8001f8e <HAL_TIM_ConfigClockSource+0x8e>
 8001f58:	2b60      	cmp	r3, #96	; 0x60
 8001f5a:	d034      	beq.n	8001fc6 <HAL_TIM_ConfigClockSource+0xc6>
 8001f5c:	d819      	bhi.n	8001f92 <HAL_TIM_ConfigClockSource+0x92>
 8001f5e:	2b50      	cmp	r3, #80	; 0x50
 8001f60:	d1e8      	bne.n	8001f34 <HAL_TIM_ConfigClockSource+0x34>
 8001f62:	684a      	ldr	r2, [r1, #4]
 8001f64:	68ce      	ldr	r6, [r1, #12]
 8001f66:	6a01      	ldr	r1, [r0, #32]
 8001f68:	6a05      	ldr	r5, [r0, #32]
 8001f6a:	f025 0501 	bic.w	r5, r5, #1
 8001f6e:	6205      	str	r5, [r0, #32]
 8001f70:	6983      	ldr	r3, [r0, #24]
 8001f72:	f021 010a 	bic.w	r1, r1, #10
 8001f76:	f023 03f0 	bic.w	r3, r3, #240	; 0xf0
 8001f7a:	ea43 1306 	orr.w	r3, r3, r6, lsl #4
 8001f7e:	430a      	orrs	r2, r1
 8001f80:	6183      	str	r3, [r0, #24]
 8001f82:	6202      	str	r2, [r0, #32]
 8001f84:	6883      	ldr	r3, [r0, #8]
 8001f86:	f023 0370 	bic.w	r3, r3, #112	; 0x70
 8001f8a:	f043 0357 	orr.w	r3, r3, #87	; 0x57
 8001f8e:	6083      	str	r3, [r0, #8]
 8001f90:	e7d0      	b.n	8001f34 <HAL_TIM_ConfigClockSource+0x34>
 8001f92:	2b70      	cmp	r3, #112	; 0x70
 8001f94:	d00c      	beq.n	8001fb0 <HAL_TIM_ConfigClockSource+0xb0>
 8001f96:	f5b3 5f00 	cmp.w	r3, #8192	; 0x2000
 8001f9a:	d1cb      	bne.n	8001f34 <HAL_TIM_ConfigClockSource+0x34>
 8001f9c:	68cb      	ldr	r3, [r1, #12]
 8001f9e:	e9d1 2101 	ldrd	r2, r1, [r1, #4]
 8001fa2:	f7ff ffa2 	bl	8001eea <TIM_ETR_SetConfig>
 8001fa6:	6822      	ldr	r2, [r4, #0]
 8001fa8:	6893      	ldr	r3, [r2, #8]
 8001faa:	f443 4380 	orr.w	r3, r3, #16384	; 0x4000
 8001fae:	e008      	b.n	8001fc2 <HAL_TIM_ConfigClockSource+0xc2>
 8001fb0:	68cb      	ldr	r3, [r1, #12]
 8001fb2:	e9d1 2101 	ldrd	r2, r1, [r1, #4]
 8001fb6:	f7ff ff98 	bl	8001eea <TIM_ETR_SetConfig>
 8001fba:	6822      	ldr	r2, [r4, #0]
 8001fbc:	6893      	ldr	r3, [r2, #8]
 8001fbe:	f043 0377 	orr.w	r3, r3, #119	; 0x77
 8001fc2:	6093      	str	r3, [r2, #8]
 8001fc4:	e7b6      	b.n	8001f34 <HAL_TIM_ConfigClockSource+0x34>
 8001fc6:	684d      	ldr	r5, [r1, #4]
 8001fc8:	68ce      	ldr	r6, [r1, #12]
 8001fca:	6a01      	ldr	r1, [r0, #32]
 8001fcc:	f021 0110 	bic.w	r1, r1, #16
 8001fd0:	6201      	str	r1, [r0, #32]
 8001fd2:	6982      	ldr	r2, [r0, #24]
 8001fd4:	6a03      	ldr	r3, [r0, #32]
 8001fd6:	f422 4270 	bic.w	r2, r2, #61440	; 0xf000
 8001fda:	f023 03a0 	bic.w	r3, r3, #160	; 0xa0
 8001fde:	ea43 1305 	orr.w	r3, r3, r5, lsl #4
 8001fe2:	ea42 3206 	orr.w	r2, r2, r6, lsl #12
 8001fe6:	6182      	str	r2, [r0, #24]
 8001fe8:	6203      	str	r3, [r0, #32]
 8001fea:	6883      	ldr	r3, [r0, #8]
 8001fec:	f023 0370 	bic.w	r3, r3, #112	; 0x70
 8001ff0:	f043 0367 	orr.w	r3, r3, #103	; 0x67
 8001ff4:	e7cb      	b.n	8001f8e <HAL_TIM_ConfigClockSource+0x8e>
 8001ff6:	684a      	ldr	r2, [r1, #4]
 8001ff8:	68ce      	ldr	r6, [r1, #12]
 8001ffa:	6a01      	ldr	r1, [r0, #32]
 8001ffc:	6a05      	ldr	r5, [r0, #32]
 8001ffe:	f025 0501 	bic.w	r5, r5, #1
 8002002:	6205      	str	r5, [r0, #32]
 8002004:	6983      	ldr	r3, [r0, #24]
 8002006:	f021 010a 	bic.w	r1, r1, #10
 800200a:	f023 03f0 	bic.w	r3, r3, #240	; 0xf0
 800200e:	ea43 1306 	orr.w	r3, r3, r6, lsl #4
 8002012:	430a      	orrs	r2, r1
 8002014:	6183      	str	r3, [r0, #24]
 8002016:	6202      	str	r2, [r0, #32]
 8002018:	6883      	ldr	r3, [r0, #8]
 800201a:	f023 0370 	bic.w	r3, r3, #112	; 0x70
 800201e:	f043 0347 	orr.w	r3, r3, #71	; 0x47
 8002022:	e7b4      	b.n	8001f8e <HAL_TIM_ConfigClockSource+0x8e>
 8002024:	fffe0088 	.word	0xfffe0088

08002028 <TIM_SlaveTimer_SetConfig>:
 8002028:	6800      	ldr	r0, [r0, #0]
 800202a:	684a      	ldr	r2, [r1, #4]
 800202c:	b538      	push	{r3, r4, r5, lr}
 800202e:	6883      	ldr	r3, [r0, #8]
 8002030:	680c      	ldr	r4, [r1, #0]
 8002032:	f023 0370 	bic.w	r3, r3, #112	; 0x70
 8002036:	4313      	orrs	r3, r2
 8002038:	f423 3380 	bic.w	r3, r3, #65536	; 0x10000
 800203c:	f023 0307 	bic.w	r3, r3, #7
 8002040:	4323      	orrs	r3, r4
 8002042:	2a50      	cmp	r2, #80	; 0x50
 8002044:	6083      	str	r3, [r0, #8]
 8002046:	d01e      	beq.n	8002086 <TIM_SlaveTimer_SetConfig+0x5e>
 8002048:	d803      	bhi.n	8002052 <TIM_SlaveTimer_SetConfig+0x2a>
 800204a:	2a40      	cmp	r2, #64	; 0x40
 800204c:	d00b      	beq.n	8002066 <TIM_SlaveTimer_SetConfig+0x3e>
 800204e:	2000      	movs	r0, #0
 8002050:	bd38      	pop	{r3, r4, r5, pc}
 8002052:	2a60      	cmp	r2, #96	; 0x60
 8002054:	d027      	beq.n	80020a6 <TIM_SlaveTimer_SetConfig+0x7e>
 8002056:	2a70      	cmp	r2, #112	; 0x70
 8002058:	d1f9      	bne.n	800204e <TIM_SlaveTimer_SetConfig+0x26>
 800205a:	690b      	ldr	r3, [r1, #16]
 800205c:	e9d1 2102 	ldrd	r2, r1, [r1, #8]
 8002060:	f7ff ff43 	bl	8001eea <TIM_ETR_SetConfig>
 8002064:	e7f3      	b.n	800204e <TIM_SlaveTimer_SetConfig+0x26>
 8002066:	2c05      	cmp	r4, #5
 8002068:	d030      	beq.n	80020cc <TIM_SlaveTimer_SetConfig+0xa4>
 800206a:	6a02      	ldr	r2, [r0, #32]
 800206c:	6a03      	ldr	r3, [r0, #32]
 800206e:	6909      	ldr	r1, [r1, #16]
 8002070:	f023 0301 	bic.w	r3, r3, #1
 8002074:	6203      	str	r3, [r0, #32]
 8002076:	6983      	ldr	r3, [r0, #24]
 8002078:	f023 03f0 	bic.w	r3, r3, #240	; 0xf0
 800207c:	ea43 1301 	orr.w	r3, r3, r1, lsl #4
 8002080:	6183      	str	r3, [r0, #24]
 8002082:	6202      	str	r2, [r0, #32]
 8002084:	e7e3      	b.n	800204e <TIM_SlaveTimer_SetConfig+0x26>
 8002086:	688a      	ldr	r2, [r1, #8]
 8002088:	690d      	ldr	r5, [r1, #16]
 800208a:	6a01      	ldr	r1, [r0, #32]
 800208c:	6a04      	ldr	r4, [r0, #32]
 800208e:	f024 0401 	bic.w	r4, r4, #1
 8002092:	6204      	str	r4, [r0, #32]
 8002094:	6983      	ldr	r3, [r0, #24]
 8002096:	f021 010a 	bic.w	r1, r1, #10
 800209a:	f023 03f0 	bic.w	r3, r3, #240	; 0xf0
 800209e:	ea43 1305 	orr.w	r3, r3, r5, lsl #4
 80020a2:	430a      	orrs	r2, r1
 80020a4:	e7ec      	b.n	8002080 <TIM_SlaveTimer_SetConfig+0x58>
 80020a6:	688c      	ldr	r4, [r1, #8]
 80020a8:	690d      	ldr	r5, [r1, #16]
 80020aa:	6a01      	ldr	r1, [r0, #32]
 80020ac:	f021 0110 	bic.w	r1, r1, #16
 80020b0:	6201      	str	r1, [r0, #32]
 80020b2:	6982      	ldr	r2, [r0, #24]
 80020b4:	6a03      	ldr	r3, [r0, #32]
 80020b6:	f422 4270 	bic.w	r2, r2, #61440	; 0xf000
 80020ba:	f023 03a0 	bic.w	r3, r3, #160	; 0xa0
 80020be:	ea42 3205 	orr.w	r2, r2, r5, lsl #12
 80020c2:	ea43 1304 	orr.w	r3, r3, r4, lsl #4
 80020c6:	6182      	str	r2, [r0, #24]
 80020c8:	6203      	str	r3, [r0, #32]
 80020ca:	e7c0      	b.n	800204e <TIM_SlaveTimer_SetConfig+0x26>
 80020cc:	2001      	movs	r0, #1
 80020ce:	e7bf      	b.n	8002050 <TIM_SlaveTimer_SetConfig+0x28>

080020d0 <HAL_TIM_SlaveConfigSynchro>:
 80020d0:	b538      	push	{r3, r4, r5, lr}
 80020d2:	f890 303c 	ldrb.w	r3, [r0, #60]	; 0x3c
 80020d6:	2b01      	cmp	r3, #1
 80020d8:	4604      	mov	r4, r0
 80020da:	f04f 0302 	mov.w	r3, #2
 80020de:	d01c      	beq.n	800211a <HAL_TIM_SlaveConfigSynchro+0x4a>
 80020e0:	2501      	movs	r5, #1
 80020e2:	f880 503c 	strb.w	r5, [r0, #60]	; 0x3c
 80020e6:	f880 303d 	strb.w	r3, [r0, #61]	; 0x3d
 80020ea:	f7ff ff9d 	bl	8002028 <TIM_SlaveTimer_SetConfig>
 80020ee:	b130      	cbz	r0, 80020fe <HAL_TIM_SlaveConfigSynchro+0x2e>
 80020f0:	2300      	movs	r3, #0
 80020f2:	f884 503d 	strb.w	r5, [r4, #61]	; 0x3d
 80020f6:	f884 303c 	strb.w	r3, [r4, #60]	; 0x3c
 80020fa:	4628      	mov	r0, r5
 80020fc:	bd38      	pop	{r3, r4, r5, pc}
 80020fe:	6823      	ldr	r3, [r4, #0]
 8002100:	68da      	ldr	r2, [r3, #12]
 8002102:	f022 0240 	bic.w	r2, r2, #64	; 0x40
 8002106:	60da      	str	r2, [r3, #12]
 8002108:	68da      	ldr	r2, [r3, #12]
 800210a:	f422 4280 	bic.w	r2, r2, #16384	; 0x4000
 800210e:	60da      	str	r2, [r3, #12]
 8002110:	f884 503d 	strb.w	r5, [r4, #61]	; 0x3d
 8002114:	f884 003c 	strb.w	r0, [r4, #60]	; 0x3c
 8002118:	e7f0      	b.n	80020fc <HAL_TIM_SlaveConfigSynchro+0x2c>
 800211a:	4618      	mov	r0, r3
 800211c:	e7ee      	b.n	80020fc <HAL_TIM_SlaveConfigSynchro+0x2c>

0800211e <TIM_CCxChannelCmd>:
 800211e:	6a03      	ldr	r3, [r0, #32]
 8002120:	f001 011f 	and.w	r1, r1, #31
 8002124:	b510      	push	{r4, lr}
 8002126:	2401      	movs	r4, #1
 8002128:	408c      	lsls	r4, r1
 800212a:	ea23 0304 	bic.w	r3, r3, r4
 800212e:	6203      	str	r3, [r0, #32]
 8002130:	6a03      	ldr	r3, [r0, #32]
 8002132:	408a      	lsls	r2, r1
 8002134:	431a      	orrs	r2, r3
 8002136:	6202      	str	r2, [r0, #32]
 8002138:	bd10      	pop	{r4, pc}
	...

0800213c <HAL_TIM_OC_Start>:
 800213c:	b510      	push	{r4, lr}
 800213e:	4604      	mov	r4, r0
 8002140:	b929      	cbnz	r1, 800214e <HAL_TIM_OC_Start+0x12>
 8002142:	f890 303e 	ldrb.w	r3, [r0, #62]	; 0x3e
 8002146:	2b01      	cmp	r3, #1
 8002148:	d031      	beq.n	80021ae <HAL_TIM_OC_Start+0x72>
 800214a:	2001      	movs	r0, #1
 800214c:	bd10      	pop	{r4, pc}
 800214e:	2904      	cmp	r1, #4
 8002150:	d107      	bne.n	8002162 <HAL_TIM_OC_Start+0x26>
 8002152:	f890 303f 	ldrb.w	r3, [r0, #63]	; 0x3f
 8002156:	2b01      	cmp	r3, #1
 8002158:	d1f7      	bne.n	800214a <HAL_TIM_OC_Start+0xe>
 800215a:	2302      	movs	r3, #2
 800215c:	f880 303f 	strb.w	r3, [r0, #63]	; 0x3f
 8002160:	e028      	b.n	80021b4 <HAL_TIM_OC_Start+0x78>
 8002162:	2908      	cmp	r1, #8
 8002164:	d107      	bne.n	8002176 <HAL_TIM_OC_Start+0x3a>
 8002166:	f890 3040 	ldrb.w	r3, [r0, #64]	; 0x40
 800216a:	2b01      	cmp	r3, #1
 800216c:	d1ed      	bne.n	800214a <HAL_TIM_OC_Start+0xe>
 800216e:	2302      	movs	r3, #2
 8002170:	f880 3040 	strb.w	r3, [r0, #64]	; 0x40
 8002174:	e01e      	b.n	80021b4 <HAL_TIM_OC_Start+0x78>
 8002176:	290c      	cmp	r1, #12
 8002178:	d107      	bne.n	800218a <HAL_TIM_OC_Start+0x4e>
 800217a:	f890 3041 	ldrb.w	r3, [r0, #65]	; 0x41
 800217e:	2b01      	cmp	r3, #1
 8002180:	d1e3      	bne.n	800214a <HAL_TIM_OC_Start+0xe>
 8002182:	2302      	movs	r3, #2
 8002184:	f880 3041 	strb.w	r3, [r0, #65]	; 0x41
 8002188:	e014      	b.n	80021b4 <HAL_TIM_OC_Start+0x78>
 800218a:	2910      	cmp	r1, #16
 800218c:	d107      	bne.n	800219e <HAL_TIM_OC_Start+0x62>
 800218e:	f890 3042 	ldrb.w	r3, [r0, #66]	; 0x42
 8002192:	2b01      	cmp	r3, #1
 8002194:	d1d9      	bne.n	800214a <HAL_TIM_OC_Start+0xe>
 8002196:	2302      	movs	r3, #2
 8002198:	f880 3042 	strb.w	r3, [r0, #66]	; 0x42
 800219c:	e00a      	b.n	80021b4 <HAL_TIM_OC_Start+0x78>
 800219e:	f890 3043 	ldrb.w	r3, [r0, #67]	; 0x43
 80021a2:	2b01      	cmp	r3, #1
 80021a4:	d1d1      	bne.n	800214a <HAL_TIM_OC_Start+0xe>
 80021a6:	2302      	movs	r3, #2
 80021a8:	f880 3043 	strb.w	r3, [r0, #67]	; 0x43
 80021ac:	e002      	b.n	80021b4 <HAL_TIM_OC_Start+0x78>
 80021ae:	2302      	movs	r3, #2
 80021b0:	f880 303e 	strb.w	r3, [r0, #62]	; 0x3e
 80021b4:	2201      	movs	r2, #1
 80021b6:	6820      	ldr	r0, [r4, #0]
 80021b8:	f7ff ffb1 	bl	800211e <TIM_CCxChannelCmd>
 80021bc:	6823      	ldr	r3, [r4, #0]
 80021be:	4a14      	ldr	r2, [pc, #80]	; (8002210 <HAL_TIM_OC_Start+0xd4>)
 80021c0:	4293      	cmp	r3, r2
 80021c2:	d006      	beq.n	80021d2 <HAL_TIM_OC_Start+0x96>
 80021c4:	4913      	ldr	r1, [pc, #76]	; (8002214 <HAL_TIM_OC_Start+0xd8>)
 80021c6:	428b      	cmp	r3, r1
 80021c8:	d003      	beq.n	80021d2 <HAL_TIM_OC_Start+0x96>
 80021ca:	f501 6180 	add.w	r1, r1, #1024	; 0x400
 80021ce:	428b      	cmp	r3, r1
 80021d0:	d11b      	bne.n	800220a <HAL_TIM_OC_Start+0xce>
 80021d2:	6c59      	ldr	r1, [r3, #68]	; 0x44
 80021d4:	4293      	cmp	r3, r2
 80021d6:	f441 4100 	orr.w	r1, r1, #32768	; 0x8000
 80021da:	6459      	str	r1, [r3, #68]	; 0x44
 80021dc:	d106      	bne.n	80021ec <HAL_TIM_OC_Start+0xb0>
 80021de:	6899      	ldr	r1, [r3, #8]
 80021e0:	4a0d      	ldr	r2, [pc, #52]	; (8002218 <HAL_TIM_OC_Start+0xdc>)
 80021e2:	400a      	ands	r2, r1
 80021e4:	2a06      	cmp	r2, #6
 80021e6:	d108      	bne.n	80021fa <HAL_TIM_OC_Start+0xbe>
 80021e8:	2000      	movs	r0, #0
 80021ea:	e7af      	b.n	800214c <HAL_TIM_OC_Start+0x10>
 80021ec:	f1b3 4f80 	cmp.w	r3, #1073741824	; 0x40000000
 80021f0:	d0f5      	beq.n	80021de <HAL_TIM_OC_Start+0xa2>
 80021f2:	4a08      	ldr	r2, [pc, #32]	; (8002214 <HAL_TIM_OC_Start+0xd8>)
 80021f4:	4293      	cmp	r3, r2
 80021f6:	d103      	bne.n	8002200 <HAL_TIM_OC_Start+0xc4>
 80021f8:	e7f1      	b.n	80021de <HAL_TIM_OC_Start+0xa2>
 80021fa:	f5b2 3f80 	cmp.w	r2, #65536	; 0x10000
 80021fe:	d0f3      	beq.n	80021e8 <HAL_TIM_OC_Start+0xac>
 8002200:	681a      	ldr	r2, [r3, #0]
 8002202:	f042 0201 	orr.w	r2, r2, #1
 8002206:	601a      	str	r2, [r3, #0]
 8002208:	e7ee      	b.n	80021e8 <HAL_TIM_OC_Start+0xac>
 800220a:	f1b3 4f80 	cmp.w	r3, #1073741824	; 0x40000000
 800220e:	e7f2      	b.n	80021f6 <HAL_TIM_OC_Start+0xba>
 8002210:	40012c00 	.word	0x40012c00
 8002214:	40014000 	.word	0x40014000
 8002218:	00010007 	.word	0x00010007

0800221c <HAL_TIM_PWM_Start>:
 800221c:	f7ff bf8e 	b.w	800213c <HAL_TIM_OC_Start>

08002220 <TIM_CCxNChannelCmd>:
 8002220:	6a03      	ldr	r3, [r0, #32]
 8002222:	f001 011f 	and.w	r1, r1, #31
 8002226:	b510      	push	{r4, lr}
 8002228:	2404      	movs	r4, #4
 800222a:	408c      	lsls	r4, r1
 800222c:	ea23 0304 	bic.w	r3, r3, r4
 8002230:	6203      	str	r3, [r0, #32]
 8002232:	6a03      	ldr	r3, [r0, #32]
 8002234:	408a      	lsls	r2, r1
 8002236:	431a      	orrs	r2, r3
 8002238:	6202      	str	r2, [r0, #32]
 800223a:	bd10      	pop	{r4, pc}

0800223c <HAL_TIMEx_OCN_Start>:
 800223c:	b510      	push	{r4, lr}
 800223e:	4604      	mov	r4, r0
 8002240:	b929      	cbnz	r1, 800224e <HAL_TIMEx_OCN_Start+0x12>
 8002242:	f890 3044 	ldrb.w	r3, [r0, #68]	; 0x44
 8002246:	2b01      	cmp	r3, #1
 8002248:	d01d      	beq.n	8002286 <HAL_TIMEx_OCN_Start+0x4a>
 800224a:	2001      	movs	r0, #1
 800224c:	bd10      	pop	{r4, pc}
 800224e:	2904      	cmp	r1, #4
 8002250:	d107      	bne.n	8002262 <HAL_TIMEx_OCN_Start+0x26>
 8002252:	f890 3045 	ldrb.w	r3, [r0, #69]	; 0x45
 8002256:	2b01      	cmp	r3, #1
 8002258:	d1f7      	bne.n	800224a <HAL_TIMEx_OCN_Start+0xe>
 800225a:	2302      	movs	r3, #2
 800225c:	f880 3045 	strb.w	r3, [r0, #69]	; 0x45
 8002260:	e014      	b.n	800228c <HAL_TIMEx_OCN_Start+0x50>
 8002262:	2908      	cmp	r1, #8
 8002264:	d107      	bne.n	8002276 <HAL_TIMEx_OCN_Start+0x3a>
 8002266:	f890 3046 	ldrb.w	r3, [r0, #70]	; 0x46
 800226a:	2b01      	cmp	r3, #1
 800226c:	d1ed      	bne.n	800224a <HAL_TIMEx_OCN_Start+0xe>
 800226e:	2302      	movs	r3, #2
 8002270:	f880 3046 	strb.w	r3, [r0, #70]	; 0x46
 8002274:	e00a      	b.n	800228c <HAL_TIMEx_OCN_Start+0x50>
 8002276:	f890 3047 	ldrb.w	r3, [r0, #71]	; 0x47
 800227a:	2b01      	cmp	r3, #1
 800227c:	d1e5      	bne.n	800224a <HAL_TIMEx_OCN_Start+0xe>
 800227e:	2302      	movs	r3, #2
 8002280:	f880 3047 	strb.w	r3, [r0, #71]	; 0x47
 8002284:	e002      	b.n	800228c <HAL_TIMEx_OCN_Start+0x50>
 8002286:	2302      	movs	r3, #2
 8002288:	f880 3044 	strb.w	r3, [r0, #68]	; 0x44
 800228c:	2204      	movs	r2, #4
 800228e:	6820      	ldr	r0, [r4, #0]
 8002290:	f7ff ffc6 	bl	8002220 <TIM_CCxNChannelCmd>
 8002294:	6823      	ldr	r3, [r4, #0]
 8002296:	6c5a      	ldr	r2, [r3, #68]	; 0x44
 8002298:	f442 4200 	orr.w	r2, r2, #32768	; 0x8000
 800229c:	645a      	str	r2, [r3, #68]	; 0x44
 800229e:	4a0c      	ldr	r2, [pc, #48]	; (80022d0 <HAL_TIMEx_OCN_Start+0x94>)
 80022a0:	4293      	cmp	r3, r2
 80022a2:	d006      	beq.n	80022b2 <HAL_TIMEx_OCN_Start+0x76>
 80022a4:	f1b3 4f80 	cmp.w	r3, #1073741824	; 0x40000000
 80022a8:	d003      	beq.n	80022b2 <HAL_TIMEx_OCN_Start+0x76>
 80022aa:	f502 52a0 	add.w	r2, r2, #5120	; 0x1400
 80022ae:	4293      	cmp	r3, r2
 80022b0:	d107      	bne.n	80022c2 <HAL_TIMEx_OCN_Start+0x86>
 80022b2:	6899      	ldr	r1, [r3, #8]
 80022b4:	4a07      	ldr	r2, [pc, #28]	; (80022d4 <HAL_TIMEx_OCN_Start+0x98>)
 80022b6:	400a      	ands	r2, r1
 80022b8:	2a06      	cmp	r2, #6
 80022ba:	d006      	beq.n	80022ca <HAL_TIMEx_OCN_Start+0x8e>
 80022bc:	f5b2 3f80 	cmp.w	r2, #65536	; 0x10000
 80022c0:	d003      	beq.n	80022ca <HAL_TIMEx_OCN_Start+0x8e>
 80022c2:	681a      	ldr	r2, [r3, #0]
 80022c4:	f042 0201 	orr.w	r2, r2, #1
 80022c8:	601a      	str	r2, [r3, #0]
 80022ca:	2000      	movs	r0, #0
 80022cc:	e7be      	b.n	800224c <HAL_TIMEx_OCN_Start+0x10>
 80022ce:	bf00      	nop
 80022d0:	40012c00 	.word	0x40012c00
 80022d4:	00010007 	.word	0x00010007

080022d8 <HAL_TIMEx_PWMN_Start>:
 80022d8:	f7ff bfb0 	b.w	800223c <HAL_TIMEx_OCN_Start>

080022dc <HAL_TIMEx_MasterConfigSynchronization>:
 80022dc:	f890 303c 	ldrb.w	r3, [r0, #60]	; 0x3c
 80022e0:	2b01      	cmp	r3, #1
 80022e2:	b570      	push	{r4, r5, r6, lr}
 80022e4:	f04f 0302 	mov.w	r3, #2
 80022e8:	d026      	beq.n	8002338 <HAL_TIMEx_MasterConfigSynchronization+0x5c>
 80022ea:	2201      	movs	r2, #1
 80022ec:	f880 203c 	strb.w	r2, [r0, #60]	; 0x3c
 80022f0:	4d12      	ldr	r5, [pc, #72]	; (800233c <HAL_TIMEx_MasterConfigSynchronization+0x60>)
 80022f2:	6802      	ldr	r2, [r0, #0]
 80022f4:	f880 303d 	strb.w	r3, [r0, #61]	; 0x3d
 80022f8:	6853      	ldr	r3, [r2, #4]
 80022fa:	6894      	ldr	r4, [r2, #8]
 80022fc:	42aa      	cmp	r2, r5
 80022fe:	bf02      	ittt	eq
 8002300:	684e      	ldreq	r6, [r1, #4]
 8002302:	f423 0370 	biceq.w	r3, r3, #15728640	; 0xf00000
 8002306:	4333      	orreq	r3, r6
 8002308:	680e      	ldr	r6, [r1, #0]
 800230a:	f023 0370 	bic.w	r3, r3, #112	; 0x70
 800230e:	4333      	orrs	r3, r6
 8002310:	42aa      	cmp	r2, r5
 8002312:	6053      	str	r3, [r2, #4]
 8002314:	d005      	beq.n	8002322 <HAL_TIMEx_MasterConfigSynchronization+0x46>
 8002316:	f1b2 4f80 	cmp.w	r2, #1073741824	; 0x40000000
 800231a:	d002      	beq.n	8002322 <HAL_TIMEx_MasterConfigSynchronization+0x46>
 800231c:	4b08      	ldr	r3, [pc, #32]	; (8002340 <HAL_TIMEx_MasterConfigSynchronization+0x64>)
 800231e:	429a      	cmp	r2, r3
 8002320:	d104      	bne.n	800232c <HAL_TIMEx_MasterConfigSynchronization+0x50>
 8002322:	6889      	ldr	r1, [r1, #8]
 8002324:	f024 0380 	bic.w	r3, r4, #128	; 0x80
 8002328:	430b      	orrs	r3, r1
 800232a:	6093      	str	r3, [r2, #8]
 800232c:	2301      	movs	r3, #1
 800232e:	f880 303d 	strb.w	r3, [r0, #61]	; 0x3d
 8002332:	2300      	movs	r3, #0
 8002334:	f880 303c 	strb.w	r3, [r0, #60]	; 0x3c
 8002338:	4618      	mov	r0, r3
 800233a:	bd70      	pop	{r4, r5, r6, pc}
 800233c:	40012c00 	.word	0x40012c00
 8002340:	40014000 	.word	0x40014000

08002344 <HAL_TIMEx_ConfigBreakDeadTime>:
 8002344:	f890 303c 	ldrb.w	r3, [r0, #60]	; 0x3c
 8002348:	2b01      	cmp	r3, #1
 800234a:	b510      	push	{r4, lr}
 800234c:	d034      	beq.n	80023b8 <HAL_TIMEx_ConfigBreakDeadTime+0x74>
 800234e:	68cb      	ldr	r3, [r1, #12]
 8002350:	688a      	ldr	r2, [r1, #8]
 8002352:	4c1a      	ldr	r4, [pc, #104]	; (80023bc <HAL_TIMEx_ConfigBreakDeadTime+0x78>)
 8002354:	f423 7340 	bic.w	r3, r3, #768	; 0x300
 8002358:	4313      	orrs	r3, r2
 800235a:	684a      	ldr	r2, [r1, #4]
 800235c:	f423 6380 	bic.w	r3, r3, #1024	; 0x400
 8002360:	4313      	orrs	r3, r2
 8002362:	680a      	ldr	r2, [r1, #0]
 8002364:	f423 6300 	bic.w	r3, r3, #2048	; 0x800
 8002368:	4313      	orrs	r3, r2
 800236a:	690a      	ldr	r2, [r1, #16]
 800236c:	f423 5380 	bic.w	r3, r3, #4096	; 0x1000
 8002370:	4313      	orrs	r3, r2
 8002372:	694a      	ldr	r2, [r1, #20]
 8002374:	f423 5300 	bic.w	r3, r3, #8192	; 0x2000
 8002378:	4313      	orrs	r3, r2
 800237a:	6a8a      	ldr	r2, [r1, #40]	; 0x28
 800237c:	f423 4380 	bic.w	r3, r3, #16384	; 0x4000
 8002380:	4313      	orrs	r3, r2
 8002382:	698a      	ldr	r2, [r1, #24]
 8002384:	f423 2370 	bic.w	r3, r3, #983040	; 0xf0000
 8002388:	ea43 4302 	orr.w	r3, r3, r2, lsl #16
 800238c:	6802      	ldr	r2, [r0, #0]
 800238e:	42a2      	cmp	r2, r4
 8002390:	d10c      	bne.n	80023ac <HAL_TIMEx_ConfigBreakDeadTime+0x68>
 8002392:	6a4c      	ldr	r4, [r1, #36]	; 0x24
 8002394:	f423 0370 	bic.w	r3, r3, #15728640	; 0xf00000
 8002398:	ea43 5304 	orr.w	r3, r3, r4, lsl #20
 800239c:	69cc      	ldr	r4, [r1, #28]
 800239e:	6a09      	ldr	r1, [r1, #32]
 80023a0:	f023 7380 	bic.w	r3, r3, #16777216	; 0x1000000
 80023a4:	4323      	orrs	r3, r4
 80023a6:	f023 7300 	bic.w	r3, r3, #33554432	; 0x2000000
 80023aa:	430b      	orrs	r3, r1
 80023ac:	6453      	str	r3, [r2, #68]	; 0x44
 80023ae:	2300      	movs	r3, #0
 80023b0:	f880 303c 	strb.w	r3, [r0, #60]	; 0x3c
 80023b4:	4618      	mov	r0, r3
 80023b6:	bd10      	pop	{r4, pc}
 80023b8:	2002      	movs	r0, #2
 80023ba:	e7fc      	b.n	80023b6 <HAL_TIMEx_ConfigBreakDeadTime+0x72>
 80023bc:	40012c00 	.word	0x40012c00

080023c0 <HAL_TIMEx_CommutCallback>:
 80023c0:	4770      	bx	lr

080023c2 <HAL_TIMEx_BreakCallback>:
 80023c2:	4770      	bx	lr

080023c4 <HAL_TIMEx_Break2Callback>:
 80023c4:	4770      	bx	lr
	...

080023c8 <__libc_init_array>:
 80023c8:	b570      	push	{r4, r5, r6, lr}
 80023ca:	4e0d      	ldr	r6, [pc, #52]	; (8002400 <__libc_init_array+0x38>)
 80023cc:	4c0d      	ldr	r4, [pc, #52]	; (8002404 <__libc_init_array+0x3c>)
 80023ce:	1ba4      	subs	r4, r4, r6
 80023d0:	10a4      	asrs	r4, r4, #2
 80023d2:	2500      	movs	r5, #0
 80023d4:	42a5      	cmp	r5, r4
 80023d6:	d109      	bne.n	80023ec <__libc_init_array+0x24>
 80023d8:	4e0b      	ldr	r6, [pc, #44]	; (8002408 <__libc_init_array+0x40>)
 80023da:	4c0c      	ldr	r4, [pc, #48]	; (800240c <__libc_init_array+0x44>)
 80023dc:	f000 fd6c 	bl	8002eb8 <_init>
 80023e0:	1ba4      	subs	r4, r4, r6
 80023e2:	10a4      	asrs	r4, r4, #2
 80023e4:	2500      	movs	r5, #0
 80023e6:	42a5      	cmp	r5, r4
 80023e8:	d105      	bne.n	80023f6 <__libc_init_array+0x2e>
 80023ea:	bd70      	pop	{r4, r5, r6, pc}
 80023ec:	f856 3025 	ldr.w	r3, [r6, r5, lsl #2]
 80023f0:	4798      	blx	r3
 80023f2:	3501      	adds	r5, #1
 80023f4:	e7ee      	b.n	80023d4 <__libc_init_array+0xc>
 80023f6:	f856 3025 	ldr.w	r3, [r6, r5, lsl #2]
 80023fa:	4798      	blx	r3
 80023fc:	3501      	adds	r5, #1
 80023fe:	e7f2      	b.n	80023e6 <__libc_init_array+0x1e>
 8002400:	080032e0 	.word	0x080032e0
 8002404:	080032e0 	.word	0x080032e0
 8002408:	080032e0 	.word	0x080032e0
 800240c:	080032e4 	.word	0x080032e4

08002410 <memset>:
 8002410:	4402      	add	r2, r0
 8002412:	4603      	mov	r3, r0
 8002414:	4293      	cmp	r3, r2
 8002416:	d100      	bne.n	800241a <memset+0xa>
 8002418:	4770      	bx	lr
 800241a:	f803 1b01 	strb.w	r1, [r3], #1
 800241e:	e7f9      	b.n	8002414 <memset+0x4>

08002420 <sinf>:
 8002420:	ee10 3a10 	vmov	r3, s0
 8002424:	b507      	push	{r0, r1, r2, lr}
 8002426:	4a1d      	ldr	r2, [pc, #116]	; (800249c <sinf+0x7c>)
 8002428:	f023 4300 	bic.w	r3, r3, #2147483648	; 0x80000000
 800242c:	4293      	cmp	r3, r2
 800242e:	dc05      	bgt.n	800243c <sinf+0x1c>
 8002430:	eddf 0a1b 	vldr	s1, [pc, #108]	; 80024a0 <sinf+0x80>
 8002434:	2000      	movs	r0, #0
 8002436:	f000 fc41 	bl	8002cbc <__kernel_sinf>
 800243a:	e004      	b.n	8002446 <sinf+0x26>
 800243c:	f1b3 4fff 	cmp.w	r3, #2139095040	; 0x7f800000
 8002440:	db04      	blt.n	800244c <sinf+0x2c>
 8002442:	ee30 0a40 	vsub.f32	s0, s0, s0
 8002446:	b003      	add	sp, #12
 8002448:	f85d fb04 	ldr.w	pc, [sp], #4
 800244c:	4668      	mov	r0, sp
 800244e:	f000 f829 	bl	80024a4 <__ieee754_rem_pio2f>
 8002452:	f000 0003 	and.w	r0, r0, #3
 8002456:	2801      	cmp	r0, #1
 8002458:	d008      	beq.n	800246c <sinf+0x4c>
 800245a:	2802      	cmp	r0, #2
 800245c:	d00d      	beq.n	800247a <sinf+0x5a>
 800245e:	b9b0      	cbnz	r0, 800248e <sinf+0x6e>
 8002460:	2001      	movs	r0, #1
 8002462:	eddd 0a01 	vldr	s1, [sp, #4]
 8002466:	ed9d 0a00 	vldr	s0, [sp]
 800246a:	e7e4      	b.n	8002436 <sinf+0x16>
 800246c:	eddd 0a01 	vldr	s1, [sp, #4]
 8002470:	ed9d 0a00 	vldr	s0, [sp]
 8002474:	f000 f942 	bl	80026fc <__kernel_cosf>
 8002478:	e7e5      	b.n	8002446 <sinf+0x26>
 800247a:	2001      	movs	r0, #1
 800247c:	eddd 0a01 	vldr	s1, [sp, #4]
 8002480:	ed9d 0a00 	vldr	s0, [sp]
 8002484:	f000 fc1a 	bl	8002cbc <__kernel_sinf>
 8002488:	eeb1 0a40 	vneg.f32	s0, s0
 800248c:	e7db      	b.n	8002446 <sinf+0x26>
 800248e:	eddd 0a01 	vldr	s1, [sp, #4]
 8002492:	ed9d 0a00 	vldr	s0, [sp]
 8002496:	f000 f931 	bl	80026fc <__kernel_cosf>
 800249a:	e7f5      	b.n	8002488 <sinf+0x68>
 800249c:	3f490fd8 	.word	0x3f490fd8
 80024a0:	00000000 	.word	0x00000000

080024a4 <__ieee754_rem_pio2f>:
 80024a4:	b5f0      	push	{r4, r5, r6, r7, lr}
 80024a6:	ee10 6a10 	vmov	r6, s0
 80024aa:	4b86      	ldr	r3, [pc, #536]	; (80026c4 <__ieee754_rem_pio2f+0x220>)
 80024ac:	f026 4400 	bic.w	r4, r6, #2147483648	; 0x80000000
 80024b0:	429c      	cmp	r4, r3
 80024b2:	b087      	sub	sp, #28
 80024b4:	4605      	mov	r5, r0
 80024b6:	dc05      	bgt.n	80024c4 <__ieee754_rem_pio2f+0x20>
 80024b8:	2300      	movs	r3, #0
 80024ba:	ed85 0a00 	vstr	s0, [r5]
 80024be:	6043      	str	r3, [r0, #4]
 80024c0:	2000      	movs	r0, #0
 80024c2:	e020      	b.n	8002506 <__ieee754_rem_pio2f+0x62>
 80024c4:	4b80      	ldr	r3, [pc, #512]	; (80026c8 <__ieee754_rem_pio2f+0x224>)
 80024c6:	429c      	cmp	r4, r3
 80024c8:	dc38      	bgt.n	800253c <__ieee754_rem_pio2f+0x98>
 80024ca:	2e00      	cmp	r6, #0
 80024cc:	f024 040f 	bic.w	r4, r4, #15
 80024d0:	ed9f 7a7e 	vldr	s14, [pc, #504]	; 80026cc <__ieee754_rem_pio2f+0x228>
 80024d4:	4b7e      	ldr	r3, [pc, #504]	; (80026d0 <__ieee754_rem_pio2f+0x22c>)
 80024d6:	dd18      	ble.n	800250a <__ieee754_rem_pio2f+0x66>
 80024d8:	429c      	cmp	r4, r3
 80024da:	ee70 7a47 	vsub.f32	s15, s0, s14
 80024de:	bf09      	itett	eq
 80024e0:	ed9f 7a7c 	vldreq	s14, [pc, #496]	; 80026d4 <__ieee754_rem_pio2f+0x230>
 80024e4:	ed9f 7a7c 	vldrne	s14, [pc, #496]	; 80026d8 <__ieee754_rem_pio2f+0x234>
 80024e8:	ee77 7ac7 	vsubeq.f32	s15, s15, s14
 80024ec:	ed9f 7a7b 	vldreq	s14, [pc, #492]	; 80026dc <__ieee754_rem_pio2f+0x238>
 80024f0:	ee77 6ac7 	vsub.f32	s13, s15, s14
 80024f4:	ee77 7ae6 	vsub.f32	s15, s15, s13
 80024f8:	edc0 6a00 	vstr	s13, [r0]
 80024fc:	ee77 7ac7 	vsub.f32	s15, s15, s14
 8002500:	edc0 7a01 	vstr	s15, [r0, #4]
 8002504:	2001      	movs	r0, #1
 8002506:	b007      	add	sp, #28
 8002508:	bdf0      	pop	{r4, r5, r6, r7, pc}
 800250a:	429c      	cmp	r4, r3
 800250c:	ee70 7a07 	vadd.f32	s15, s0, s14
 8002510:	bf09      	itett	eq
 8002512:	ed9f 7a70 	vldreq	s14, [pc, #448]	; 80026d4 <__ieee754_rem_pio2f+0x230>
 8002516:	ed9f 7a70 	vldrne	s14, [pc, #448]	; 80026d8 <__ieee754_rem_pio2f+0x234>
 800251a:	ee77 7a87 	vaddeq.f32	s15, s15, s14
 800251e:	ed9f 7a6f 	vldreq	s14, [pc, #444]	; 80026dc <__ieee754_rem_pio2f+0x238>
 8002522:	ee77 6a87 	vadd.f32	s13, s15, s14
 8002526:	ee77 7ae6 	vsub.f32	s15, s15, s13
 800252a:	edc0 6a00 	vstr	s13, [r0]
 800252e:	ee77 7a87 	vadd.f32	s15, s15, s14
 8002532:	edc0 7a01 	vstr	s15, [r0, #4]
 8002536:	f04f 30ff 	mov.w	r0, #4294967295
 800253a:	e7e4      	b.n	8002506 <__ieee754_rem_pio2f+0x62>
 800253c:	4b68      	ldr	r3, [pc, #416]	; (80026e0 <__ieee754_rem_pio2f+0x23c>)
 800253e:	429c      	cmp	r4, r3
 8002540:	dc71      	bgt.n	8002626 <__ieee754_rem_pio2f+0x182>
 8002542:	f000 fc03 	bl	8002d4c <fabsf>
 8002546:	ed9f 7a67 	vldr	s14, [pc, #412]	; 80026e4 <__ieee754_rem_pio2f+0x240>
 800254a:	eef6 7a00 	vmov.f32	s15, #96	; 0x3f000000  0.5
 800254e:	eee0 7a07 	vfma.f32	s15, s0, s14
 8002552:	eefd 7ae7 	vcvt.s32.f32	s15, s15
 8002556:	eeb8 6ae7 	vcvt.f32.s32	s12, s15
 800255a:	ee17 0a90 	vmov	r0, s15
 800255e:	eddf 7a5b 	vldr	s15, [pc, #364]	; 80026cc <__ieee754_rem_pio2f+0x228>
 8002562:	eeb1 7a46 	vneg.f32	s14, s12
 8002566:	eea7 0a27 	vfma.f32	s0, s14, s15
 800256a:	281f      	cmp	r0, #31
 800256c:	eddf 7a5a 	vldr	s15, [pc, #360]	; 80026d8 <__ieee754_rem_pio2f+0x234>
 8002570:	ee66 7a27 	vmul.f32	s15, s12, s15
 8002574:	ee70 6a67 	vsub.f32	s13, s0, s15
 8002578:	ee16 3a90 	vmov	r3, s13
 800257c:	dc1c      	bgt.n	80025b8 <__ieee754_rem_pio2f+0x114>
 800257e:	1e47      	subs	r7, r0, #1
 8002580:	4959      	ldr	r1, [pc, #356]	; (80026e8 <__ieee754_rem_pio2f+0x244>)
 8002582:	f851 1027 	ldr.w	r1, [r1, r7, lsl #2]
 8002586:	f024 02ff 	bic.w	r2, r4, #255	; 0xff
 800258a:	428a      	cmp	r2, r1
 800258c:	d014      	beq.n	80025b8 <__ieee754_rem_pio2f+0x114>
 800258e:	602b      	str	r3, [r5, #0]
 8002590:	ed95 7a00 	vldr	s14, [r5]
 8002594:	ee30 0a47 	vsub.f32	s0, s0, s14
 8002598:	2e00      	cmp	r6, #0
 800259a:	ee30 0a67 	vsub.f32	s0, s0, s15
 800259e:	ed85 0a01 	vstr	s0, [r5, #4]
 80025a2:	dab0      	bge.n	8002506 <__ieee754_rem_pio2f+0x62>
 80025a4:	eeb1 7a47 	vneg.f32	s14, s14
 80025a8:	eeb1 0a40 	vneg.f32	s0, s0
 80025ac:	ed85 7a00 	vstr	s14, [r5]
 80025b0:	ed85 0a01 	vstr	s0, [r5, #4]
 80025b4:	4240      	negs	r0, r0
 80025b6:	e7a6      	b.n	8002506 <__ieee754_rem_pio2f+0x62>
 80025b8:	15e4      	asrs	r4, r4, #23
 80025ba:	f3c3 52c7 	ubfx	r2, r3, #23, #8
 80025be:	1aa2      	subs	r2, r4, r2
 80025c0:	2a08      	cmp	r2, #8
 80025c2:	dde4      	ble.n	800258e <__ieee754_rem_pio2f+0xea>
 80025c4:	eddf 7a43 	vldr	s15, [pc, #268]	; 80026d4 <__ieee754_rem_pio2f+0x230>
 80025c8:	eef0 6a40 	vmov.f32	s13, s0
 80025cc:	eee7 6a27 	vfma.f32	s13, s14, s15
 80025d0:	ee30 0a66 	vsub.f32	s0, s0, s13
 80025d4:	eea7 0a27 	vfma.f32	s0, s14, s15
 80025d8:	eddf 7a40 	vldr	s15, [pc, #256]	; 80026dc <__ieee754_rem_pio2f+0x238>
 80025dc:	ee96 0a27 	vfnms.f32	s0, s12, s15
 80025e0:	ee76 5ac0 	vsub.f32	s11, s13, s0
 80025e4:	eef0 7a40 	vmov.f32	s15, s0
 80025e8:	ee15 3a90 	vmov	r3, s11
 80025ec:	f3c3 52c7 	ubfx	r2, r3, #23, #8
 80025f0:	1aa4      	subs	r4, r4, r2
 80025f2:	2c19      	cmp	r4, #25
 80025f4:	dc04      	bgt.n	8002600 <__ieee754_rem_pio2f+0x15c>
 80025f6:	edc5 5a00 	vstr	s11, [r5]
 80025fa:	eeb0 0a66 	vmov.f32	s0, s13
 80025fe:	e7c7      	b.n	8002590 <__ieee754_rem_pio2f+0xec>
 8002600:	eddf 5a3a 	vldr	s11, [pc, #232]	; 80026ec <__ieee754_rem_pio2f+0x248>
 8002604:	eeb0 0a66 	vmov.f32	s0, s13
 8002608:	eea7 0a25 	vfma.f32	s0, s14, s11
 800260c:	ee76 7ac0 	vsub.f32	s15, s13, s0
 8002610:	eee7 7a25 	vfma.f32	s15, s14, s11
 8002614:	ed9f 7a36 	vldr	s14, [pc, #216]	; 80026f0 <__ieee754_rem_pio2f+0x24c>
 8002618:	eed6 7a07 	vfnms.f32	s15, s12, s14
 800261c:	ee30 7a67 	vsub.f32	s14, s0, s15
 8002620:	ed85 7a00 	vstr	s14, [r5]
 8002624:	e7b4      	b.n	8002590 <__ieee754_rem_pio2f+0xec>
 8002626:	f1b4 4fff 	cmp.w	r4, #2139095040	; 0x7f800000
 800262a:	db06      	blt.n	800263a <__ieee754_rem_pio2f+0x196>
 800262c:	ee70 7a40 	vsub.f32	s15, s0, s0
 8002630:	edc0 7a01 	vstr	s15, [r0, #4]
 8002634:	edc0 7a00 	vstr	s15, [r0]
 8002638:	e742      	b.n	80024c0 <__ieee754_rem_pio2f+0x1c>
 800263a:	15e2      	asrs	r2, r4, #23
 800263c:	3a86      	subs	r2, #134	; 0x86
 800263e:	eba4 53c2 	sub.w	r3, r4, r2, lsl #23
 8002642:	ee07 3a90 	vmov	s15, r3
 8002646:	eebd 7ae7 	vcvt.s32.f32	s14, s15
 800264a:	eddf 6a2a 	vldr	s13, [pc, #168]	; 80026f4 <__ieee754_rem_pio2f+0x250>
 800264e:	eeb8 7ac7 	vcvt.f32.s32	s14, s14
 8002652:	ee77 7ac7 	vsub.f32	s15, s15, s14
 8002656:	ed8d 7a03 	vstr	s14, [sp, #12]
 800265a:	ee67 7aa6 	vmul.f32	s15, s15, s13
 800265e:	eebd 7ae7 	vcvt.s32.f32	s14, s15
 8002662:	eeb8 7ac7 	vcvt.f32.s32	s14, s14
 8002666:	ee77 7ac7 	vsub.f32	s15, s15, s14
 800266a:	ed8d 7a04 	vstr	s14, [sp, #16]
 800266e:	ee67 7aa6 	vmul.f32	s15, s15, s13
 8002672:	eef5 7a40 	vcmp.f32	s15, #0.0
 8002676:	eef1 fa10 	vmrs	APSR_nzcv, fpscr
 800267a:	edcd 7a05 	vstr	s15, [sp, #20]
 800267e:	d11e      	bne.n	80026be <__ieee754_rem_pio2f+0x21a>
 8002680:	eeb5 7a40 	vcmp.f32	s14, #0.0
 8002684:	eef1 fa10 	vmrs	APSR_nzcv, fpscr
 8002688:	bf0c      	ite	eq
 800268a:	2301      	moveq	r3, #1
 800268c:	2302      	movne	r3, #2
 800268e:	491a      	ldr	r1, [pc, #104]	; (80026f8 <__ieee754_rem_pio2f+0x254>)
 8002690:	9101      	str	r1, [sp, #4]
 8002692:	2102      	movs	r1, #2
 8002694:	9100      	str	r1, [sp, #0]
 8002696:	a803      	add	r0, sp, #12
 8002698:	4629      	mov	r1, r5
 800269a:	f000 f88d 	bl	80027b8 <__kernel_rem_pio2f>
 800269e:	2e00      	cmp	r6, #0
 80026a0:	f6bf af31 	bge.w	8002506 <__ieee754_rem_pio2f+0x62>
 80026a4:	edd5 7a00 	vldr	s15, [r5]
 80026a8:	eef1 7a67 	vneg.f32	s15, s15
 80026ac:	edc5 7a00 	vstr	s15, [r5]
 80026b0:	edd5 7a01 	vldr	s15, [r5, #4]
 80026b4:	eef1 7a67 	vneg.f32	s15, s15
 80026b8:	edc5 7a01 	vstr	s15, [r5, #4]
 80026bc:	e77a      	b.n	80025b4 <__ieee754_rem_pio2f+0x110>
 80026be:	2303      	movs	r3, #3
 80026c0:	e7e5      	b.n	800268e <__ieee754_rem_pio2f+0x1ea>
 80026c2:	bf00      	nop
 80026c4:	3f490fd8 	.word	0x3f490fd8
 80026c8:	4016cbe3 	.word	0x4016cbe3
 80026cc:	3fc90f80 	.word	0x3fc90f80
 80026d0:	3fc90fd0 	.word	0x3fc90fd0
 80026d4:	37354400 	.word	0x37354400
 80026d8:	37354443 	.word	0x37354443
 80026dc:	2e85a308 	.word	0x2e85a308
 80026e0:	43490f80 	.word	0x43490f80
 80026e4:	3f22f984 	.word	0x3f22f984
 80026e8:	08002f10 	.word	0x08002f10
 80026ec:	2e85a300 	.word	0x2e85a300
 80026f0:	248d3132 	.word	0x248d3132
 80026f4:	43800000 	.word	0x43800000
 80026f8:	08002f90 	.word	0x08002f90

080026fc <__kernel_cosf>:
 80026fc:	ee10 3a10 	vmov	r3, s0
 8002700:	f023 4300 	bic.w	r3, r3, #2147483648	; 0x80000000
 8002704:	f1b3 5f48 	cmp.w	r3, #838860800	; 0x32000000
 8002708:	eef7 6a00 	vmov.f32	s13, #112	; 0x3f800000  1.0
 800270c:	da05      	bge.n	800271a <__kernel_cosf+0x1e>
 800270e:	eefd 7ac0 	vcvt.s32.f32	s15, s0
 8002712:	ee17 2a90 	vmov	r2, s15
 8002716:	2a00      	cmp	r2, #0
 8002718:	d03b      	beq.n	8002792 <__kernel_cosf+0x96>
 800271a:	ee20 6a00 	vmul.f32	s12, s0, s0
 800271e:	eeb6 7a00 	vmov.f32	s14, #96	; 0x3f000000  0.5
 8002722:	eddf 5a1d 	vldr	s11, [pc, #116]	; 8002798 <__kernel_cosf+0x9c>
 8002726:	4a1d      	ldr	r2, [pc, #116]	; (800279c <__kernel_cosf+0xa0>)
 8002728:	ee66 7a07 	vmul.f32	s15, s12, s14
 800272c:	ed9f 7a1c 	vldr	s14, [pc, #112]	; 80027a0 <__kernel_cosf+0xa4>
 8002730:	eea6 7a25 	vfma.f32	s14, s12, s11
 8002734:	4293      	cmp	r3, r2
 8002736:	eddf 5a1b 	vldr	s11, [pc, #108]	; 80027a4 <__kernel_cosf+0xa8>
 800273a:	eee7 5a06 	vfma.f32	s11, s14, s12
 800273e:	ed9f 7a1a 	vldr	s14, [pc, #104]	; 80027a8 <__kernel_cosf+0xac>
 8002742:	eea5 7a86 	vfma.f32	s14, s11, s12
 8002746:	eddf 5a19 	vldr	s11, [pc, #100]	; 80027ac <__kernel_cosf+0xb0>
 800274a:	eee7 5a06 	vfma.f32	s11, s14, s12
 800274e:	ed9f 7a18 	vldr	s14, [pc, #96]	; 80027b0 <__kernel_cosf+0xb4>
 8002752:	eea5 7a86 	vfma.f32	s14, s11, s12
 8002756:	ee60 0ac0 	vnmul.f32	s1, s1, s0
 800275a:	ee27 7a06 	vmul.f32	s14, s14, s12
 800275e:	eee6 0a07 	vfma.f32	s1, s12, s14
 8002762:	dc04      	bgt.n	800276e <__kernel_cosf+0x72>
 8002764:	ee77 0ae0 	vsub.f32	s1, s15, s1
 8002768:	ee36 0ae0 	vsub.f32	s0, s13, s1
 800276c:	4770      	bx	lr
 800276e:	4a11      	ldr	r2, [pc, #68]	; (80027b4 <__kernel_cosf+0xb8>)
 8002770:	4293      	cmp	r3, r2
 8002772:	bfda      	itte	le
 8002774:	f103 437f 	addle.w	r3, r3, #4278190080	; 0xff000000
 8002778:	ee07 3a10 	vmovle	s14, r3
 800277c:	eeb5 7a02 	vmovgt.f32	s14, #82	; 0x3e900000  0.2812500
 8002780:	ee77 7ac7 	vsub.f32	s15, s15, s14
 8002784:	ee36 0ac7 	vsub.f32	s0, s13, s14
 8002788:	ee77 7ae0 	vsub.f32	s15, s15, s1
 800278c:	ee30 0a67 	vsub.f32	s0, s0, s15
 8002790:	4770      	bx	lr
 8002792:	eeb0 0a66 	vmov.f32	s0, s13
 8002796:	4770      	bx	lr
 8002798:	ad47d74e 	.word	0xad47d74e
 800279c:	3e999999 	.word	0x3e999999
 80027a0:	310f74f6 	.word	0x310f74f6
 80027a4:	b493f27c 	.word	0xb493f27c
 80027a8:	37d00d01 	.word	0x37d00d01
 80027ac:	bab60b61 	.word	0xbab60b61
 80027b0:	3d2aaaab 	.word	0x3d2aaaab
 80027b4:	3f480000 	.word	0x3f480000

080027b8 <__kernel_rem_pio2f>:
 80027b8:	e92d 4ff0 	stmdb	sp!, {r4, r5, r6, r7, r8, r9, sl, fp, lr}
 80027bc:	ed2d 8b04 	vpush	{d8-d9}
 80027c0:	b0d7      	sub	sp, #348	; 0x15c
 80027c2:	469b      	mov	fp, r3
 80027c4:	460e      	mov	r6, r1
 80027c6:	4bbe      	ldr	r3, [pc, #760]	; (8002ac0 <__kernel_rem_pio2f+0x308>)
 80027c8:	9964      	ldr	r1, [sp, #400]	; 0x190
 80027ca:	9002      	str	r0, [sp, #8]
 80027cc:	f853 9021 	ldr.w	r9, [r3, r1, lsl #2]
 80027d0:	9865      	ldr	r0, [sp, #404]	; 0x194
 80027d2:	ed9f 7abf 	vldr	s14, [pc, #764]	; 8002ad0 <__kernel_rem_pio2f+0x318>
 80027d6:	1ed1      	subs	r1, r2, #3
 80027d8:	2308      	movs	r3, #8
 80027da:	fb91 f1f3 	sdiv	r1, r1, r3
 80027de:	ea21 71e1 	bic.w	r1, r1, r1, asr #31
 80027e2:	f10b 3aff 	add.w	sl, fp, #4294967295
 80027e6:	1c4c      	adds	r4, r1, #1
 80027e8:	eba2 04c4 	sub.w	r4, r2, r4, lsl #3
 80027ec:	eba1 050a 	sub.w	r5, r1, sl
 80027f0:	aa1a      	add	r2, sp, #104	; 0x68
 80027f2:	eb09 070a 	add.w	r7, r9, sl
 80027f6:	eb00 0c85 	add.w	ip, r0, r5, lsl #2
 80027fa:	4696      	mov	lr, r2
 80027fc:	2300      	movs	r3, #0
 80027fe:	42bb      	cmp	r3, r7
 8002800:	dd0f      	ble.n	8002822 <__kernel_rem_pio2f+0x6a>
 8002802:	af42      	add	r7, sp, #264	; 0x108
 8002804:	2200      	movs	r2, #0
 8002806:	454a      	cmp	r2, r9
 8002808:	dc27      	bgt.n	800285a <__kernel_rem_pio2f+0xa2>
 800280a:	f10d 0c68 	add.w	ip, sp, #104	; 0x68
 800280e:	eb0b 0302 	add.w	r3, fp, r2
 8002812:	eb0c 0383 	add.w	r3, ip, r3, lsl #2
 8002816:	9d02      	ldr	r5, [sp, #8]
 8002818:	eddf 7aad 	vldr	s15, [pc, #692]	; 8002ad0 <__kernel_rem_pio2f+0x318>
 800281c:	f04f 0c00 	mov.w	ip, #0
 8002820:	e015      	b.n	800284e <__kernel_rem_pio2f+0x96>
 8002822:	42dd      	cmn	r5, r3
 8002824:	bf5d      	ittte	pl
 8002826:	f85c 2023 	ldrpl.w	r2, [ip, r3, lsl #2]
 800282a:	ee07 2a90 	vmovpl	s15, r2
 800282e:	eef8 7ae7 	vcvtpl.f32.s32	s15, s15
 8002832:	eef0 7a47 	vmovmi.f32	s15, s14
 8002836:	ecee 7a01 	vstmia	lr!, {s15}
 800283a:	3301      	adds	r3, #1
 800283c:	e7df      	b.n	80027fe <__kernel_rem_pio2f+0x46>
 800283e:	ecf5 6a01 	vldmia	r5!, {s13}
 8002842:	ed33 7a01 	vldmdb	r3!, {s14}
 8002846:	eee6 7a87 	vfma.f32	s15, s13, s14
 800284a:	f10c 0c01 	add.w	ip, ip, #1
 800284e:	45d4      	cmp	ip, sl
 8002850:	ddf5      	ble.n	800283e <__kernel_rem_pio2f+0x86>
 8002852:	ece7 7a01 	vstmia	r7!, {s15}
 8002856:	3201      	adds	r2, #1
 8002858:	e7d5      	b.n	8002806 <__kernel_rem_pio2f+0x4e>
 800285a:	ab06      	add	r3, sp, #24
 800285c:	eb03 0389 	add.w	r3, r3, r9, lsl #2
 8002860:	9304      	str	r3, [sp, #16]
 8002862:	eddf 8a9a 	vldr	s17, [pc, #616]	; 8002acc <__kernel_rem_pio2f+0x314>
 8002866:	ed9f 9a98 	vldr	s18, [pc, #608]	; 8002ac8 <__kernel_rem_pio2f+0x310>
 800286a:	eb00 0381 	add.w	r3, r0, r1, lsl #2
 800286e:	9303      	str	r3, [sp, #12]
 8002870:	464d      	mov	r5, r9
 8002872:	ab56      	add	r3, sp, #344	; 0x158
 8002874:	f105 4780 	add.w	r7, r5, #1073741824	; 0x40000000
 8002878:	eb03 0385 	add.w	r3, r3, r5, lsl #2
 800287c:	3f01      	subs	r7, #1
 800287e:	ed13 0a14 	vldr	s0, [r3, #-80]	; 0xffffffb0
 8002882:	00bf      	lsls	r7, r7, #2
 8002884:	ab56      	add	r3, sp, #344	; 0x158
 8002886:	19da      	adds	r2, r3, r7
 8002888:	3a4c      	subs	r2, #76	; 0x4c
 800288a:	2300      	movs	r3, #0
 800288c:	1ae9      	subs	r1, r5, r3
 800288e:	2900      	cmp	r1, #0
 8002890:	dc4c      	bgt.n	800292c <__kernel_rem_pio2f+0x174>
 8002892:	4620      	mov	r0, r4
 8002894:	f000 faa4 	bl	8002de0 <scalbnf>
 8002898:	eeb0 8a40 	vmov.f32	s16, s0
 800289c:	eeb4 0a00 	vmov.f32	s0, #64	; 0x3e000000  0.125
 80028a0:	ee28 0a00 	vmul.f32	s0, s16, s0
 80028a4:	f000 fa5a 	bl	8002d5c <floorf>
 80028a8:	eef2 7a00 	vmov.f32	s15, #32	; 0x41000000  8.0
 80028ac:	eea0 8a67 	vfms.f32	s16, s0, s15
 80028b0:	2c00      	cmp	r4, #0
 80028b2:	eefd 7ac8 	vcvt.s32.f32	s15, s16
 80028b6:	edcd 7a01 	vstr	s15, [sp, #4]
 80028ba:	eef8 7ae7 	vcvt.f32.s32	s15, s15
 80028be:	ee38 8a67 	vsub.f32	s16, s16, s15
 80028c2:	dd48      	ble.n	8002956 <__kernel_rem_pio2f+0x19e>
 80028c4:	1e69      	subs	r1, r5, #1
 80028c6:	ab06      	add	r3, sp, #24
 80028c8:	f1c4 0008 	rsb	r0, r4, #8
 80028cc:	f853 c021 	ldr.w	ip, [r3, r1, lsl #2]
 80028d0:	9a01      	ldr	r2, [sp, #4]
 80028d2:	fa4c f300 	asr.w	r3, ip, r0
 80028d6:	441a      	add	r2, r3
 80028d8:	4083      	lsls	r3, r0
 80028da:	9201      	str	r2, [sp, #4]
 80028dc:	ebac 0203 	sub.w	r2, ip, r3
 80028e0:	ab06      	add	r3, sp, #24
 80028e2:	f843 2021 	str.w	r2, [r3, r1, lsl #2]
 80028e6:	f1c4 0307 	rsb	r3, r4, #7
 80028ea:	fa42 f803 	asr.w	r8, r2, r3
 80028ee:	f1b8 0f00 	cmp.w	r8, #0
 80028f2:	dd41      	ble.n	8002978 <__kernel_rem_pio2f+0x1c0>
 80028f4:	9b01      	ldr	r3, [sp, #4]
 80028f6:	2000      	movs	r0, #0
 80028f8:	3301      	adds	r3, #1
 80028fa:	9301      	str	r3, [sp, #4]
 80028fc:	4601      	mov	r1, r0
 80028fe:	4285      	cmp	r5, r0
 8002900:	dc6d      	bgt.n	80029de <__kernel_rem_pio2f+0x226>
 8002902:	2c00      	cmp	r4, #0
 8002904:	dd04      	ble.n	8002910 <__kernel_rem_pio2f+0x158>
 8002906:	2c01      	cmp	r4, #1
 8002908:	d07e      	beq.n	8002a08 <__kernel_rem_pio2f+0x250>
 800290a:	2c02      	cmp	r4, #2
 800290c:	f000 8086 	beq.w	8002a1c <__kernel_rem_pio2f+0x264>
 8002910:	f1b8 0f02 	cmp.w	r8, #2
 8002914:	d130      	bne.n	8002978 <__kernel_rem_pio2f+0x1c0>
 8002916:	eeb7 0a00 	vmov.f32	s0, #112	; 0x3f800000  1.0
 800291a:	ee30 8a48 	vsub.f32	s16, s0, s16
 800291e:	b359      	cbz	r1, 8002978 <__kernel_rem_pio2f+0x1c0>
 8002920:	4620      	mov	r0, r4
 8002922:	f000 fa5d 	bl	8002de0 <scalbnf>
 8002926:	ee38 8a40 	vsub.f32	s16, s16, s0
 800292a:	e025      	b.n	8002978 <__kernel_rem_pio2f+0x1c0>
 800292c:	ee60 7a28 	vmul.f32	s15, s0, s17
 8002930:	a806      	add	r0, sp, #24
 8002932:	eefd 7ae7 	vcvt.s32.f32	s15, s15
 8002936:	eef8 7ae7 	vcvt.f32.s32	s15, s15
 800293a:	eea7 0ac9 	vfms.f32	s0, s15, s18
 800293e:	eebd 0ac0 	vcvt.s32.f32	s0, s0
 8002942:	ee10 1a10 	vmov	r1, s0
 8002946:	ed32 0a01 	vldmdb	r2!, {s0}
 800294a:	f840 1023 	str.w	r1, [r0, r3, lsl #2]
 800294e:	ee37 0a80 	vadd.f32	s0, s15, s0
 8002952:	3301      	adds	r3, #1
 8002954:	e79a      	b.n	800288c <__kernel_rem_pio2f+0xd4>
 8002956:	d106      	bne.n	8002966 <__kernel_rem_pio2f+0x1ae>
 8002958:	1e6b      	subs	r3, r5, #1
 800295a:	aa06      	add	r2, sp, #24
 800295c:	f852 2023 	ldr.w	r2, [r2, r3, lsl #2]
 8002960:	ea4f 2822 	mov.w	r8, r2, asr #8
 8002964:	e7c3      	b.n	80028ee <__kernel_rem_pio2f+0x136>
 8002966:	eef6 7a00 	vmov.f32	s15, #96	; 0x3f000000  0.5
 800296a:	eeb4 8ae7 	vcmpe.f32	s16, s15
 800296e:	eef1 fa10 	vmrs	APSR_nzcv, fpscr
 8002972:	da31      	bge.n	80029d8 <__kernel_rem_pio2f+0x220>
 8002974:	f04f 0800 	mov.w	r8, #0
 8002978:	eeb5 8a40 	vcmp.f32	s16, #0.0
 800297c:	eef1 fa10 	vmrs	APSR_nzcv, fpscr
 8002980:	f040 80a8 	bne.w	8002ad4 <__kernel_rem_pio2f+0x31c>
 8002984:	1e6b      	subs	r3, r5, #1
 8002986:	4618      	mov	r0, r3
 8002988:	2200      	movs	r2, #0
 800298a:	4548      	cmp	r0, r9
 800298c:	da4d      	bge.n	8002a2a <__kernel_rem_pio2f+0x272>
 800298e:	2a00      	cmp	r2, #0
 8002990:	f000 8087 	beq.w	8002aa2 <__kernel_rem_pio2f+0x2ea>
 8002994:	aa06      	add	r2, sp, #24
 8002996:	3c08      	subs	r4, #8
 8002998:	f852 1023 	ldr.w	r1, [r2, r3, lsl #2]
 800299c:	2900      	cmp	r1, #0
 800299e:	f000 808d 	beq.w	8002abc <__kernel_rem_pio2f+0x304>
 80029a2:	4620      	mov	r0, r4
 80029a4:	eeb7 0a00 	vmov.f32	s0, #112	; 0x3f800000  1.0
 80029a8:	9302      	str	r3, [sp, #8]
 80029aa:	f000 fa19 	bl	8002de0 <scalbnf>
 80029ae:	9b02      	ldr	r3, [sp, #8]
 80029b0:	ed9f 7a46 	vldr	s14, [pc, #280]	; 8002acc <__kernel_rem_pio2f+0x314>
 80029b4:	0099      	lsls	r1, r3, #2
 80029b6:	aa42      	add	r2, sp, #264	; 0x108
 80029b8:	1850      	adds	r0, r2, r1
 80029ba:	1d05      	adds	r5, r0, #4
 80029bc:	461c      	mov	r4, r3
 80029be:	2c00      	cmp	r4, #0
 80029c0:	f280 80b8 	bge.w	8002b34 <__kernel_rem_pio2f+0x37c>
 80029c4:	2500      	movs	r5, #0
 80029c6:	1b5c      	subs	r4, r3, r5
 80029c8:	2c00      	cmp	r4, #0
 80029ca:	f2c0 80d8 	blt.w	8002b7e <__kernel_rem_pio2f+0x3c6>
 80029ce:	4f3d      	ldr	r7, [pc, #244]	; (8002ac4 <__kernel_rem_pio2f+0x30c>)
 80029d0:	eddf 7a3f 	vldr	s15, [pc, #252]	; 8002ad0 <__kernel_rem_pio2f+0x318>
 80029d4:	2400      	movs	r4, #0
 80029d6:	e0c6      	b.n	8002b66 <__kernel_rem_pio2f+0x3ae>
 80029d8:	f04f 0802 	mov.w	r8, #2
 80029dc:	e78a      	b.n	80028f4 <__kernel_rem_pio2f+0x13c>
 80029de:	ab06      	add	r3, sp, #24
 80029e0:	f853 3020 	ldr.w	r3, [r3, r0, lsl #2]
 80029e4:	b949      	cbnz	r1, 80029fa <__kernel_rem_pio2f+0x242>
 80029e6:	b12b      	cbz	r3, 80029f4 <__kernel_rem_pio2f+0x23c>
 80029e8:	aa06      	add	r2, sp, #24
 80029ea:	f5c3 7380 	rsb	r3, r3, #256	; 0x100
 80029ee:	f842 3020 	str.w	r3, [r2, r0, lsl #2]
 80029f2:	2301      	movs	r3, #1
 80029f4:	3001      	adds	r0, #1
 80029f6:	4619      	mov	r1, r3
 80029f8:	e781      	b.n	80028fe <__kernel_rem_pio2f+0x146>
 80029fa:	aa06      	add	r2, sp, #24
 80029fc:	f1c3 03ff 	rsb	r3, r3, #255	; 0xff
 8002a00:	f842 3020 	str.w	r3, [r2, r0, lsl #2]
 8002a04:	460b      	mov	r3, r1
 8002a06:	e7f5      	b.n	80029f4 <__kernel_rem_pio2f+0x23c>
 8002a08:	1e68      	subs	r0, r5, #1
 8002a0a:	ab06      	add	r3, sp, #24
 8002a0c:	f853 3020 	ldr.w	r3, [r3, r0, lsl #2]
 8002a10:	f003 037f 	and.w	r3, r3, #127	; 0x7f
 8002a14:	aa06      	add	r2, sp, #24
 8002a16:	f842 3020 	str.w	r3, [r2, r0, lsl #2]
 8002a1a:	e779      	b.n	8002910 <__kernel_rem_pio2f+0x158>
 8002a1c:	1e68      	subs	r0, r5, #1
 8002a1e:	ab06      	add	r3, sp, #24
 8002a20:	f853 3020 	ldr.w	r3, [r3, r0, lsl #2]
 8002a24:	f003 033f 	and.w	r3, r3, #63	; 0x3f
 8002a28:	e7f4      	b.n	8002a14 <__kernel_rem_pio2f+0x25c>
 8002a2a:	a906      	add	r1, sp, #24
 8002a2c:	f851 1020 	ldr.w	r1, [r1, r0, lsl #2]
 8002a30:	3801      	subs	r0, #1
 8002a32:	430a      	orrs	r2, r1
 8002a34:	e7a9      	b.n	800298a <__kernel_rem_pio2f+0x1d2>
 8002a36:	f10c 0c01 	add.w	ip, ip, #1
 8002a3a:	f853 2d04 	ldr.w	r2, [r3, #-4]!
 8002a3e:	2a00      	cmp	r2, #0
 8002a40:	d0f9      	beq.n	8002a36 <__kernel_rem_pio2f+0x27e>
 8002a42:	eb0b 0305 	add.w	r3, fp, r5
 8002a46:	aa1a      	add	r2, sp, #104	; 0x68
 8002a48:	009b      	lsls	r3, r3, #2
 8002a4a:	1898      	adds	r0, r3, r2
 8002a4c:	3004      	adds	r0, #4
 8002a4e:	1c69      	adds	r1, r5, #1
 8002a50:	3704      	adds	r7, #4
 8002a52:	2200      	movs	r2, #0
 8002a54:	4465      	add	r5, ip
 8002a56:	9005      	str	r0, [sp, #20]
 8002a58:	428d      	cmp	r5, r1
 8002a5a:	f6ff af0a 	blt.w	8002872 <__kernel_rem_pio2f+0xba>
 8002a5e:	a81a      	add	r0, sp, #104	; 0x68
 8002a60:	eb02 0c03 	add.w	ip, r2, r3
 8002a64:	4484      	add	ip, r0
 8002a66:	9803      	ldr	r0, [sp, #12]
 8002a68:	f8dd e008 	ldr.w	lr, [sp, #8]
 8002a6c:	f850 0021 	ldr.w	r0, [r0, r1, lsl #2]
 8002a70:	9001      	str	r0, [sp, #4]
 8002a72:	ee07 0a90 	vmov	s15, r0
 8002a76:	eef8 7ae7 	vcvt.f32.s32	s15, s15
 8002a7a:	9805      	ldr	r0, [sp, #20]
 8002a7c:	edcc 7a00 	vstr	s15, [ip]
 8002a80:	eddf 7a13 	vldr	s15, [pc, #76]	; 8002ad0 <__kernel_rem_pio2f+0x318>
 8002a84:	eb00 0802 	add.w	r8, r0, r2
 8002a88:	f04f 0c00 	mov.w	ip, #0
 8002a8c:	45d4      	cmp	ip, sl
 8002a8e:	dd0c      	ble.n	8002aaa <__kernel_rem_pio2f+0x2f2>
 8002a90:	eb02 0c07 	add.w	ip, r2, r7
 8002a94:	a842      	add	r0, sp, #264	; 0x108
 8002a96:	4484      	add	ip, r0
 8002a98:	edcc 7a01 	vstr	s15, [ip, #4]
 8002a9c:	3101      	adds	r1, #1
 8002a9e:	3204      	adds	r2, #4
 8002aa0:	e7da      	b.n	8002a58 <__kernel_rem_pio2f+0x2a0>
 8002aa2:	9b04      	ldr	r3, [sp, #16]
 8002aa4:	f04f 0c01 	mov.w	ip, #1
 8002aa8:	e7c7      	b.n	8002a3a <__kernel_rem_pio2f+0x282>
 8002aaa:	ecfe 6a01 	vldmia	lr!, {s13}
 8002aae:	ed38 7a01 	vldmdb	r8!, {s14}
 8002ab2:	f10c 0c01 	add.w	ip, ip, #1
 8002ab6:	eee6 7a87 	vfma.f32	s15, s13, s14
 8002aba:	e7e7      	b.n	8002a8c <__kernel_rem_pio2f+0x2d4>
 8002abc:	3b01      	subs	r3, #1
 8002abe:	e769      	b.n	8002994 <__kernel_rem_pio2f+0x1dc>
 8002ac0:	080032d4 	.word	0x080032d4
 8002ac4:	080032a8 	.word	0x080032a8
 8002ac8:	43800000 	.word	0x43800000
 8002acc:	3b800000 	.word	0x3b800000
 8002ad0:	00000000 	.word	0x00000000
 8002ad4:	4260      	negs	r0, r4
 8002ad6:	eeb0 0a48 	vmov.f32	s0, s16
 8002ada:	f000 f981 	bl	8002de0 <scalbnf>
 8002ade:	ed1f 7a06 	vldr	s14, [pc, #-24]	; 8002ac8 <__kernel_rem_pio2f+0x310>
 8002ae2:	eeb4 0ac7 	vcmpe.f32	s0, s14
 8002ae6:	eef1 fa10 	vmrs	APSR_nzcv, fpscr
 8002aea:	db1a      	blt.n	8002b22 <__kernel_rem_pio2f+0x36a>
 8002aec:	ed5f 7a09 	vldr	s15, [pc, #-36]	; 8002acc <__kernel_rem_pio2f+0x314>
 8002af0:	ee60 7a27 	vmul.f32	s15, s0, s15
 8002af4:	aa06      	add	r2, sp, #24
 8002af6:	eefd 7ae7 	vcvt.s32.f32	s15, s15
 8002afa:	a906      	add	r1, sp, #24
 8002afc:	eef8 7ae7 	vcvt.f32.s32	s15, s15
 8002b00:	3408      	adds	r4, #8
 8002b02:	eea7 0ac7 	vfms.f32	s0, s15, s14
 8002b06:	eefd 7ae7 	vcvt.s32.f32	s15, s15
 8002b0a:	eebd 0ac0 	vcvt.s32.f32	s0, s0
 8002b0e:	ee10 3a10 	vmov	r3, s0
 8002b12:	f842 3025 	str.w	r3, [r2, r5, lsl #2]
 8002b16:	1c6b      	adds	r3, r5, #1
 8002b18:	ee17 2a90 	vmov	r2, s15
 8002b1c:	f841 2023 	str.w	r2, [r1, r3, lsl #2]
 8002b20:	e73f      	b.n	80029a2 <__kernel_rem_pio2f+0x1ea>
 8002b22:	eebd 0ac0 	vcvt.s32.f32	s0, s0
 8002b26:	aa06      	add	r2, sp, #24
 8002b28:	ee10 3a10 	vmov	r3, s0
 8002b2c:	f842 3025 	str.w	r3, [r2, r5, lsl #2]
 8002b30:	462b      	mov	r3, r5
 8002b32:	e736      	b.n	80029a2 <__kernel_rem_pio2f+0x1ea>
 8002b34:	aa06      	add	r2, sp, #24
 8002b36:	f852 2024 	ldr.w	r2, [r2, r4, lsl #2]
 8002b3a:	9202      	str	r2, [sp, #8]
 8002b3c:	ee07 2a90 	vmov	s15, r2
 8002b40:	eef8 7ae7 	vcvt.f32.s32	s15, s15
 8002b44:	3c01      	subs	r4, #1
 8002b46:	ee67 7a80 	vmul.f32	s15, s15, s0
 8002b4a:	ee20 0a07 	vmul.f32	s0, s0, s14
 8002b4e:	ed65 7a01 	vstmdb	r5!, {s15}
 8002b52:	e734      	b.n	80029be <__kernel_rem_pio2f+0x206>
 8002b54:	eb00 0c84 	add.w	ip, r0, r4, lsl #2
 8002b58:	ecf7 6a01 	vldmia	r7!, {s13}
 8002b5c:	ed9c 7a00 	vldr	s14, [ip]
 8002b60:	eee6 7a87 	vfma.f32	s15, s13, s14
 8002b64:	3401      	adds	r4, #1
 8002b66:	454c      	cmp	r4, r9
 8002b68:	dc01      	bgt.n	8002b6e <__kernel_rem_pio2f+0x3b6>
 8002b6a:	42a5      	cmp	r5, r4
 8002b6c:	daf2      	bge.n	8002b54 <__kernel_rem_pio2f+0x39c>
 8002b6e:	aa56      	add	r2, sp, #344	; 0x158
 8002b70:	eb02 0485 	add.w	r4, r2, r5, lsl #2
 8002b74:	ed44 7a28 	vstr	s15, [r4, #-160]	; 0xffffff60
 8002b78:	3501      	adds	r5, #1
 8002b7a:	3804      	subs	r0, #4
 8002b7c:	e723      	b.n	80029c6 <__kernel_rem_pio2f+0x20e>
 8002b7e:	9a64      	ldr	r2, [sp, #400]	; 0x190
 8002b80:	2a03      	cmp	r2, #3
 8002b82:	d84d      	bhi.n	8002c20 <__kernel_rem_pio2f+0x468>
 8002b84:	e8df f002 	tbb	[pc, r2]
 8002b88:	021f1f3e 	.word	0x021f1f3e
 8002b8c:	aa56      	add	r2, sp, #344	; 0x158
 8002b8e:	4411      	add	r1, r2
 8002b90:	399c      	subs	r1, #156	; 0x9c
 8002b92:	4608      	mov	r0, r1
 8002b94:	461c      	mov	r4, r3
 8002b96:	2c00      	cmp	r4, #0
 8002b98:	dc5f      	bgt.n	8002c5a <__kernel_rem_pio2f+0x4a2>
 8002b9a:	4608      	mov	r0, r1
 8002b9c:	461c      	mov	r4, r3
 8002b9e:	2c01      	cmp	r4, #1
 8002ba0:	dc6b      	bgt.n	8002c7a <__kernel_rem_pio2f+0x4c2>
 8002ba2:	ed5f 7a35 	vldr	s15, [pc, #-212]	; 8002ad0 <__kernel_rem_pio2f+0x318>
 8002ba6:	2b01      	cmp	r3, #1
 8002ba8:	dc77      	bgt.n	8002c9a <__kernel_rem_pio2f+0x4e2>
 8002baa:	eddd 6a2e 	vldr	s13, [sp, #184]	; 0xb8
 8002bae:	ed9d 7a2f 	vldr	s14, [sp, #188]	; 0xbc
 8002bb2:	f1b8 0f00 	cmp.w	r8, #0
 8002bb6:	d176      	bne.n	8002ca6 <__kernel_rem_pio2f+0x4ee>
 8002bb8:	edc6 6a00 	vstr	s13, [r6]
 8002bbc:	ed86 7a01 	vstr	s14, [r6, #4]
 8002bc0:	edc6 7a02 	vstr	s15, [r6, #8]
 8002bc4:	e02c      	b.n	8002c20 <__kernel_rem_pio2f+0x468>
 8002bc6:	aa56      	add	r2, sp, #344	; 0x158
 8002bc8:	4411      	add	r1, r2
 8002bca:	ed1f 7a3f 	vldr	s14, [pc, #-252]	; 8002ad0 <__kernel_rem_pio2f+0x318>
 8002bce:	399c      	subs	r1, #156	; 0x9c
 8002bd0:	4618      	mov	r0, r3
 8002bd2:	2800      	cmp	r0, #0
 8002bd4:	da32      	bge.n	8002c3c <__kernel_rem_pio2f+0x484>
 8002bd6:	f1b8 0f00 	cmp.w	r8, #0
 8002bda:	d035      	beq.n	8002c48 <__kernel_rem_pio2f+0x490>
 8002bdc:	eef1 7a47 	vneg.f32	s15, s14
 8002be0:	edc6 7a00 	vstr	s15, [r6]
 8002be4:	eddd 7a2e 	vldr	s15, [sp, #184]	; 0xb8
 8002be8:	ee77 7ac7 	vsub.f32	s15, s15, s14
 8002bec:	a82f      	add	r0, sp, #188	; 0xbc
 8002bee:	2101      	movs	r1, #1
 8002bf0:	428b      	cmp	r3, r1
 8002bf2:	da2c      	bge.n	8002c4e <__kernel_rem_pio2f+0x496>
 8002bf4:	f1b8 0f00 	cmp.w	r8, #0
 8002bf8:	d001      	beq.n	8002bfe <__kernel_rem_pio2f+0x446>
 8002bfa:	eef1 7a67 	vneg.f32	s15, s15
 8002bfe:	edc6 7a01 	vstr	s15, [r6, #4]
 8002c02:	e00d      	b.n	8002c20 <__kernel_rem_pio2f+0x468>
 8002c04:	aa56      	add	r2, sp, #344	; 0x158
 8002c06:	4411      	add	r1, r2
 8002c08:	ed5f 7a4f 	vldr	s15, [pc, #-316]	; 8002ad0 <__kernel_rem_pio2f+0x318>
 8002c0c:	399c      	subs	r1, #156	; 0x9c
 8002c0e:	2b00      	cmp	r3, #0
 8002c10:	da0e      	bge.n	8002c30 <__kernel_rem_pio2f+0x478>
 8002c12:	f1b8 0f00 	cmp.w	r8, #0
 8002c16:	d001      	beq.n	8002c1c <__kernel_rem_pio2f+0x464>
 8002c18:	eef1 7a67 	vneg.f32	s15, s15
 8002c1c:	edc6 7a00 	vstr	s15, [r6]
 8002c20:	9b01      	ldr	r3, [sp, #4]
 8002c22:	f003 0007 	and.w	r0, r3, #7
 8002c26:	b057      	add	sp, #348	; 0x15c
 8002c28:	ecbd 8b04 	vpop	{d8-d9}
 8002c2c:	e8bd 8ff0 	ldmia.w	sp!, {r4, r5, r6, r7, r8, r9, sl, fp, pc}
 8002c30:	ed31 7a01 	vldmdb	r1!, {s14}
 8002c34:	3b01      	subs	r3, #1
 8002c36:	ee77 7a87 	vadd.f32	s15, s15, s14
 8002c3a:	e7e8      	b.n	8002c0e <__kernel_rem_pio2f+0x456>
 8002c3c:	ed71 7a01 	vldmdb	r1!, {s15}
 8002c40:	3801      	subs	r0, #1
 8002c42:	ee37 7a27 	vadd.f32	s14, s14, s15
 8002c46:	e7c4      	b.n	8002bd2 <__kernel_rem_pio2f+0x41a>
 8002c48:	eef0 7a47 	vmov.f32	s15, s14
 8002c4c:	e7c8      	b.n	8002be0 <__kernel_rem_pio2f+0x428>
 8002c4e:	ecb0 7a01 	vldmia	r0!, {s14}
 8002c52:	3101      	adds	r1, #1
 8002c54:	ee77 7a87 	vadd.f32	s15, s15, s14
 8002c58:	e7ca      	b.n	8002bf0 <__kernel_rem_pio2f+0x438>
 8002c5a:	ed50 7a02 	vldr	s15, [r0, #-8]
 8002c5e:	ed70 6a01 	vldmdb	r0!, {s13}
 8002c62:	ee37 7aa6 	vadd.f32	s14, s15, s13
 8002c66:	3c01      	subs	r4, #1
 8002c68:	ee77 7ac7 	vsub.f32	s15, s15, s14
 8002c6c:	ed00 7a01 	vstr	s14, [r0, #-4]
 8002c70:	ee77 7aa6 	vadd.f32	s15, s15, s13
 8002c74:	edc0 7a00 	vstr	s15, [r0]
 8002c78:	e78d      	b.n	8002b96 <__kernel_rem_pio2f+0x3de>
 8002c7a:	ed50 7a02 	vldr	s15, [r0, #-8]
 8002c7e:	ed70 6a01 	vldmdb	r0!, {s13}
 8002c82:	ee37 7aa6 	vadd.f32	s14, s15, s13
 8002c86:	3c01      	subs	r4, #1
 8002c88:	ee77 7ac7 	vsub.f32	s15, s15, s14
 8002c8c:	ed00 7a01 	vstr	s14, [r0, #-4]
 8002c90:	ee77 7aa6 	vadd.f32	s15, s15, s13
 8002c94:	edc0 7a00 	vstr	s15, [r0]
 8002c98:	e781      	b.n	8002b9e <__kernel_rem_pio2f+0x3e6>
 8002c9a:	ed31 7a01 	vldmdb	r1!, {s14}
 8002c9e:	3b01      	subs	r3, #1
 8002ca0:	ee77 7a87 	vadd.f32	s15, s15, s14
 8002ca4:	e77f      	b.n	8002ba6 <__kernel_rem_pio2f+0x3ee>
 8002ca6:	eef1 6a66 	vneg.f32	s13, s13
 8002caa:	eeb1 7a47 	vneg.f32	s14, s14
 8002cae:	edc6 6a00 	vstr	s13, [r6]
 8002cb2:	ed86 7a01 	vstr	s14, [r6, #4]
 8002cb6:	eef1 7a67 	vneg.f32	s15, s15
 8002cba:	e781      	b.n	8002bc0 <__kernel_rem_pio2f+0x408>

08002cbc <__kernel_sinf>:
 8002cbc:	ee10 3a10 	vmov	r3, s0
 8002cc0:	f023 4300 	bic.w	r3, r3, #2147483648	; 0x80000000
 8002cc4:	f1b3 5f48 	cmp.w	r3, #838860800	; 0x32000000
 8002cc8:	da04      	bge.n	8002cd4 <__kernel_sinf+0x18>
 8002cca:	eefd 7ac0 	vcvt.s32.f32	s15, s0
 8002cce:	ee17 3a90 	vmov	r3, s15
 8002cd2:	b35b      	cbz	r3, 8002d2c <__kernel_sinf+0x70>
 8002cd4:	ee20 7a00 	vmul.f32	s14, s0, s0
 8002cd8:	eddf 7a15 	vldr	s15, [pc, #84]	; 8002d30 <__kernel_sinf+0x74>
 8002cdc:	ed9f 6a15 	vldr	s12, [pc, #84]	; 8002d34 <__kernel_sinf+0x78>
 8002ce0:	eea7 6a27 	vfma.f32	s12, s14, s15
 8002ce4:	eddf 7a14 	vldr	s15, [pc, #80]	; 8002d38 <__kernel_sinf+0x7c>
 8002ce8:	eee6 7a07 	vfma.f32	s15, s12, s14
 8002cec:	ed9f 6a13 	vldr	s12, [pc, #76]	; 8002d3c <__kernel_sinf+0x80>
 8002cf0:	eea7 6a87 	vfma.f32	s12, s15, s14
 8002cf4:	eddf 7a12 	vldr	s15, [pc, #72]	; 8002d40 <__kernel_sinf+0x84>
 8002cf8:	ee60 6a07 	vmul.f32	s13, s0, s14
 8002cfc:	eee6 7a07 	vfma.f32	s15, s12, s14
 8002d00:	b930      	cbnz	r0, 8002d10 <__kernel_sinf+0x54>
 8002d02:	ed9f 6a10 	vldr	s12, [pc, #64]	; 8002d44 <__kernel_sinf+0x88>
 8002d06:	eea7 6a27 	vfma.f32	s12, s14, s15
 8002d0a:	eea6 0a26 	vfma.f32	s0, s12, s13
 8002d0e:	4770      	bx	lr
 8002d10:	ee67 7ae6 	vnmul.f32	s15, s15, s13
 8002d14:	eeb6 6a00 	vmov.f32	s12, #96	; 0x3f000000  0.5
 8002d18:	eee0 7a86 	vfma.f32	s15, s1, s12
 8002d1c:	eed7 0a87 	vfnms.f32	s1, s15, s14
 8002d20:	eddf 7a09 	vldr	s15, [pc, #36]	; 8002d48 <__kernel_sinf+0x8c>
 8002d24:	eee6 0aa7 	vfma.f32	s1, s13, s15
 8002d28:	ee30 0a60 	vsub.f32	s0, s0, s1
 8002d2c:	4770      	bx	lr
 8002d2e:	bf00      	nop
 8002d30:	2f2ec9d3 	.word	0x2f2ec9d3
 8002d34:	b2d72f34 	.word	0xb2d72f34
 8002d38:	3638ef1b 	.word	0x3638ef1b
 8002d3c:	b9500d01 	.word	0xb9500d01
 8002d40:	3c088889 	.word	0x3c088889
 8002d44:	be2aaaab 	.word	0xbe2aaaab
 8002d48:	3e2aaaab 	.word	0x3e2aaaab

08002d4c <fabsf>:
 8002d4c:	ee10 3a10 	vmov	r3, s0
 8002d50:	f023 4300 	bic.w	r3, r3, #2147483648	; 0x80000000
 8002d54:	ee00 3a10 	vmov	s0, r3
 8002d58:	4770      	bx	lr
	...

08002d5c <floorf>:
 8002d5c:	ee10 3a10 	vmov	r3, s0
 8002d60:	f023 4100 	bic.w	r1, r3, #2147483648	; 0x80000000
 8002d64:	0dca      	lsrs	r2, r1, #23
 8002d66:	3a7f      	subs	r2, #127	; 0x7f
 8002d68:	2a16      	cmp	r2, #22
 8002d6a:	dc2a      	bgt.n	8002dc2 <floorf+0x66>
 8002d6c:	2a00      	cmp	r2, #0
 8002d6e:	da11      	bge.n	8002d94 <floorf+0x38>
 8002d70:	eddf 7a18 	vldr	s15, [pc, #96]	; 8002dd4 <floorf+0x78>
 8002d74:	ee30 0a27 	vadd.f32	s0, s0, s15
 8002d78:	eeb5 0ac0 	vcmpe.f32	s0, #0.0
 8002d7c:	eef1 fa10 	vmrs	APSR_nzcv, fpscr
 8002d80:	dd05      	ble.n	8002d8e <floorf+0x32>
 8002d82:	2b00      	cmp	r3, #0
 8002d84:	da23      	bge.n	8002dce <floorf+0x72>
 8002d86:	4a14      	ldr	r2, [pc, #80]	; (8002dd8 <floorf+0x7c>)
 8002d88:	2900      	cmp	r1, #0
 8002d8a:	bf18      	it	ne
 8002d8c:	4613      	movne	r3, r2
 8002d8e:	ee00 3a10 	vmov	s0, r3
 8002d92:	4770      	bx	lr
 8002d94:	4911      	ldr	r1, [pc, #68]	; (8002ddc <floorf+0x80>)
 8002d96:	4111      	asrs	r1, r2
 8002d98:	420b      	tst	r3, r1
 8002d9a:	d0fa      	beq.n	8002d92 <floorf+0x36>
 8002d9c:	eddf 7a0d 	vldr	s15, [pc, #52]	; 8002dd4 <floorf+0x78>
 8002da0:	ee30 0a27 	vadd.f32	s0, s0, s15
 8002da4:	eeb5 0ac0 	vcmpe.f32	s0, #0.0
 8002da8:	eef1 fa10 	vmrs	APSR_nzcv, fpscr
 8002dac:	ddef      	ble.n	8002d8e <floorf+0x32>
 8002dae:	2b00      	cmp	r3, #0
 8002db0:	bfbe      	ittt	lt
 8002db2:	f44f 0000 	movlt.w	r0, #8388608	; 0x800000
 8002db6:	fa40 f202 	asrlt.w	r2, r0, r2
 8002dba:	189b      	addlt	r3, r3, r2
 8002dbc:	ea23 0301 	bic.w	r3, r3, r1
 8002dc0:	e7e5      	b.n	8002d8e <floorf+0x32>
 8002dc2:	f1b1 4fff 	cmp.w	r1, #2139095040	; 0x7f800000
 8002dc6:	d3e4      	bcc.n	8002d92 <floorf+0x36>
 8002dc8:	ee30 0a00 	vadd.f32	s0, s0, s0
 8002dcc:	4770      	bx	lr
 8002dce:	2300      	movs	r3, #0
 8002dd0:	e7dd      	b.n	8002d8e <floorf+0x32>
 8002dd2:	bf00      	nop
 8002dd4:	7149f2ca 	.word	0x7149f2ca
 8002dd8:	bf800000 	.word	0xbf800000
 8002ddc:	007fffff 	.word	0x007fffff

08002de0 <scalbnf>:
 8002de0:	b508      	push	{r3, lr}
 8002de2:	ee10 2a10 	vmov	r2, s0
 8002de6:	f032 4300 	bics.w	r3, r2, #2147483648	; 0x80000000
 8002dea:	ed2d 8b02 	vpush	{d8}
 8002dee:	eef0 0a40 	vmov.f32	s1, s0
 8002df2:	d004      	beq.n	8002dfe <scalbnf+0x1e>
 8002df4:	f1b3 4fff 	cmp.w	r3, #2139095040	; 0x7f800000
 8002df8:	d306      	bcc.n	8002e08 <scalbnf+0x28>
 8002dfa:	ee70 0a00 	vadd.f32	s1, s0, s0
 8002dfe:	ecbd 8b02 	vpop	{d8}
 8002e02:	eeb0 0a60 	vmov.f32	s0, s1
 8002e06:	bd08      	pop	{r3, pc}
 8002e08:	f5b3 0f00 	cmp.w	r3, #8388608	; 0x800000
 8002e0c:	d21c      	bcs.n	8002e48 <scalbnf+0x68>
 8002e0e:	4b1f      	ldr	r3, [pc, #124]	; (8002e8c <scalbnf+0xac>)
 8002e10:	eddf 7a1f 	vldr	s15, [pc, #124]	; 8002e90 <scalbnf+0xb0>
 8002e14:	4298      	cmp	r0, r3
 8002e16:	ee60 0a27 	vmul.f32	s1, s0, s15
 8002e1a:	db10      	blt.n	8002e3e <scalbnf+0x5e>
 8002e1c:	ee10 2a90 	vmov	r2, s1
 8002e20:	f3c2 53c7 	ubfx	r3, r2, #23, #8
 8002e24:	3b19      	subs	r3, #25
 8002e26:	4403      	add	r3, r0
 8002e28:	2bfe      	cmp	r3, #254	; 0xfe
 8002e2a:	dd0f      	ble.n	8002e4c <scalbnf+0x6c>
 8002e2c:	ed9f 8a19 	vldr	s16, [pc, #100]	; 8002e94 <scalbnf+0xb4>
 8002e30:	eeb0 0a48 	vmov.f32	s0, s16
 8002e34:	f000 f834 	bl	8002ea0 <copysignf>
 8002e38:	ee60 0a08 	vmul.f32	s1, s0, s16
 8002e3c:	e7df      	b.n	8002dfe <scalbnf+0x1e>
 8002e3e:	eddf 7a16 	vldr	s15, [pc, #88]	; 8002e98 <scalbnf+0xb8>
 8002e42:	ee60 0aa7 	vmul.f32	s1, s1, s15
 8002e46:	e7da      	b.n	8002dfe <scalbnf+0x1e>
 8002e48:	0ddb      	lsrs	r3, r3, #23
 8002e4a:	e7ec      	b.n	8002e26 <scalbnf+0x46>
 8002e4c:	2b00      	cmp	r3, #0
 8002e4e:	dd06      	ble.n	8002e5e <scalbnf+0x7e>
 8002e50:	f022 42ff 	bic.w	r2, r2, #2139095040	; 0x7f800000
 8002e54:	ea42 53c3 	orr.w	r3, r2, r3, lsl #23
 8002e58:	ee00 3a90 	vmov	s1, r3
 8002e5c:	e7cf      	b.n	8002dfe <scalbnf+0x1e>
 8002e5e:	f113 0f16 	cmn.w	r3, #22
 8002e62:	da06      	bge.n	8002e72 <scalbnf+0x92>
 8002e64:	f24c 3350 	movw	r3, #50000	; 0xc350
 8002e68:	4298      	cmp	r0, r3
 8002e6a:	dcdf      	bgt.n	8002e2c <scalbnf+0x4c>
 8002e6c:	ed9f 8a0a 	vldr	s16, [pc, #40]	; 8002e98 <scalbnf+0xb8>
 8002e70:	e7de      	b.n	8002e30 <scalbnf+0x50>
 8002e72:	3319      	adds	r3, #25
 8002e74:	f022 42ff 	bic.w	r2, r2, #2139095040	; 0x7f800000
 8002e78:	ea42 53c3 	orr.w	r3, r2, r3, lsl #23
 8002e7c:	eddf 7a07 	vldr	s15, [pc, #28]	; 8002e9c <scalbnf+0xbc>
 8002e80:	ee07 3a10 	vmov	s14, r3
 8002e84:	ee67 0a27 	vmul.f32	s1, s14, s15
 8002e88:	e7b9      	b.n	8002dfe <scalbnf+0x1e>
 8002e8a:	bf00      	nop
 8002e8c:	ffff3cb0 	.word	0xffff3cb0
 8002e90:	4c000000 	.word	0x4c000000
 8002e94:	7149f2ca 	.word	0x7149f2ca
 8002e98:	0da24260 	.word	0x0da24260
 8002e9c:	33000000 	.word	0x33000000

08002ea0 <copysignf>:
 8002ea0:	ee10 3a10 	vmov	r3, s0
 8002ea4:	ee10 2a90 	vmov	r2, s1
 8002ea8:	f023 4300 	bic.w	r3, r3, #2147483648	; 0x80000000
 8002eac:	f002 4200 	and.w	r2, r2, #2147483648	; 0x80000000
 8002eb0:	4313      	orrs	r3, r2
 8002eb2:	ee00 3a10 	vmov	s0, r3
 8002eb6:	4770      	bx	lr

08002eb8 <_init>:
 8002eb8:	b5f8      	push	{r3, r4, r5, r6, r7, lr}
 8002eba:	bf00      	nop
 8002ebc:	bcf8      	pop	{r3, r4, r5, r6, r7}
 8002ebe:	bc08      	pop	{r3}
 8002ec0:	469e      	mov	lr, r3
 8002ec2:	4770      	bx	lr

08002ec4 <_fini>:
 8002ec4:	b5f8      	push	{r3, r4, r5, r6, r7, lr}
 8002ec6:	bf00      	nop
 8002ec8:	bcf8      	pop	{r3, r4, r5, r6, r7}
 8002eca:	bc08      	pop	{r3}
 8002ecc:	469e      	mov	lr, r3
 8002ece:	4770      	bx	lr
